ccollections
defaultdict
p0
(c__builtin__
float
p1
tp2
Rp3
(c__builtin__
frozenset
p4
((lp5
(S'relative_y'
p6
cnumpy.core.multiarray
scalar
p7
(cnumpy
dtype
p8
(S'i8'
p9
I0
I1
tp10
Rp11
(I3
S'<'
p12
NNNI-1
I-1
I0
tp13
bS'\xfb\xff\xff\xff\xff\xff\xff\xff'
p14
tp15
Rp16
tp17
a(S'gravity'
p18
g7
(g11
S'\x01\x00\x00\x00\x00\x00\x00\x00'
p19
tp20
Rp21
tp22
a(S'should_jump'
p23
I1
tp24
a(S'relative_x'
p25
I0
tp26
a(S'should_fall'
p27
I0
tp28
atp29
Rp30
I1
tp31
F0.0
s(g4
((lp32
(g23
I0
tp33
a(g6
g7
(g11
S'\x03\x00\x00\x00\x00\x00\x00\x00'
p34
tp35
Rp36
tp37
a(g18
g7
(g11
S'\x04\x00\x00\x00\x00\x00\x00\x00'
p38
tp39
Rp40
tp41
a(g25
I0
tp42
a(g27
I0
tp43
atp44
Rp45
I0
tp46
F0.0005919473236997476
s(g4
((lp47
(g23
I0
tp48
a(g18
g7
(g11
S'\x04\x00\x00\x00\x00\x00\x00\x00'
p49
tp50
Rp51
tp52
a(g25
I1
tp53
a(g6
g7
(g11
S'\x01\x00\x00\x00\x00\x00\x00\x00'
p54
tp55
Rp56
tp57
a(g27
I0
tp58
atp59
Rp60
I0
tp61
F0.9403073302367695
s(g4
((lp62
(g6
g7
(g11
S'\xfb\xff\xff\xff\xff\xff\xff\xff'
p63
tp64
Rp65
tp66
a(g18
g7
(g11
S'\x01\x00\x00\x00\x00\x00\x00\x00'
p67
tp68
Rp69
tp70
a(g25
I1
tp71
a(g23
I1
tp72
a(g27
I0
tp73
atp74
Rp75
I1
tp76
F0.0
s(g4
((lp77
(g18
g7
(g11
S'\x01\x00\x00\x00\x00\x00\x00\x00'
p78
tp79
Rp80
tp81
a(g6
g7
(g11
S'\xf9\xff\xff\xff\xff\xff\xff\xff'
p82
tp83
Rp84
tp85
a(g23
I1
tp86
a(g25
I7
tp87
a(g27
I0
tp88
atp89
Rp90
I1
tp91
F0.0
s(g4
((lp92
(g23
I0
tp93
a(g18
g7
(g11
S'\x04\x00\x00\x00\x00\x00\x00\x00'
p94
tp95
Rp96
tp97
a(g6
g7
(g11
S'\xfa\xff\xff\xff\xff\xff\xff\xff'
p98
tp99
Rp100
tp101
a(g25
I8
tp102
a(g27
I0
tp103
atp104
Rp105
I0
tp106
F0.034371588240477174
s(g4
((lp107
(g23
I0
tp108
a(g18
g7
(g11
S'\x04\x00\x00\x00\x00\x00\x00\x00'
p109
tp110
Rp111
tp112
a(g6
g7
(g11
S'\x01\x00\x00\x00\x00\x00\x00\x00'
p113
tp114
Rp115
tp116
a(g25
I2
tp117
a(g27
I0
tp118
atp119
Rp120
I0
tp121
F0.6004314591467612
s(g4
((lp122
(g23
I0
tp123
a(g6
g7
(g11
S'\x03\x00\x00\x00\x00\x00\x00\x00'
p124
tp125
Rp126
tp127
a(g18
g7
(g11
S'\x04\x00\x00\x00\x00\x00\x00\x00'
p128
tp129
Rp130
tp131
a(g27
I1
tp132
a(g25
I-2
tp133
atp134
Rp135
I1
tp136
F0.0
s(g4
((lp137
(g23
I0
tp138
a(g6
I4
tp139
a(g18
g7
(g11
S'\x04\x00\x00\x00\x00\x00\x00\x00'
p140
tp141
Rp142
tp143
a(g25
I9
tp144
a(g27
I0
tp145
atp146
Rp147
I0
tp148
F0.014968983848517888
s(g4
((lp149
(g23
I0
tp150
a(g25
I8
tp151
a(g18
g7
(g11
S'\x04\x00\x00\x00\x00\x00\x00\x00'
p152
tp153
Rp154
tp155
a(g27
I1
tp156
a(g6
I5
tp157
atp158
Rp159
I1
tp160
F0.0
s(g4
((lp161
(g23
I0
tp162
a(g18
g7
(g11
S'\x04\x00\x00\x00\x00\x00\x00\x00'
p163
tp164
Rp165
tp166
a(g6
g7
(g11
S'\x06\x00\x00\x00\x00\x00\x00\x00'
p167
tp168
Rp169
tp170
a(g25
I5
tp171
a(g27
I0
tp172
atp173
Rp174
I0
tp175
F-0.0017340600003944158
s(g4
((lp176
(g18
g7
(g11
S'\x01\x00\x00\x00\x00\x00\x00\x00'
p177
tp178
Rp179
tp180
a(g25
I-3
tp181
a(g23
I1
tp182
a(g6
g7
(g11
S'\xfd\xff\xff\xff\xff\xff\xff\xff'
p183
tp184
Rp185
tp186
a(g27
I0
tp187
atp188
Rp189
I0
tp190
F4.832974790884528e-12
s(g4
((lp191
(g23
I0
tp192
a(g25
I3
tp193
a(g18
g7
(g11
S'\x04\x00\x00\x00\x00\x00\x00\x00'
p194
tp195
Rp196
tp197
a(g6
g7
(g11
S'\x01\x00\x00\x00\x00\x00\x00\x00'
p198
tp199
Rp200
tp201
a(g27
I0
tp202
atp203
Rp204
I1
tp205
F0.0
s(g4
((lp206
(g23
I0
tp207
a(g6
g7
(g11
S'\xfc\xff\xff\xff\xff\xff\xff\xff'
p208
tp209
Rp210
tp211
a(g18
g7
(g11
S'\x04\x00\x00\x00\x00\x00\x00\x00'
p212
tp213
Rp214
tp215
a(g25
I7
tp216
a(g27
I0
tp217
atp218
Rp219
I0
tp220
F0.068972678178344
s(g4
((lp221
(g18
g7
(g11
S'\x04\x00\x00\x00\x00\x00\x00\x00'
p222
tp223
Rp224
tp225
a(g23
I1
tp226
a(g6
g7
(g11
S'\xfe\xff\xff\xff\xff\xff\xff\xff'
p227
tp228
Rp229
tp230
a(g25
I-3
tp231
a(g27
I0
tp232
atp233
Rp234
I1
tp235
F0.000567607046645197
s(g4
((lp236
(g23
I0
tp237
a(g18
g7
(g11
S'\x01\x00\x00\x00\x00\x00\x00\x00'
p238
tp239
Rp240
tp241
a(g25
I-2
tp242
a(g27
I1
tp243
a(g6
g7
(g11
S'\x04\x00\x00\x00\x00\x00\x00\x00'
p244
tp245
Rp246
tp247
atp248
Rp249
I1
tp250
F0.0
s(g4
((lp251
(g18
g7
(g11
S'\x04\x00\x00\x00\x00\x00\x00\x00'
p252
tp253
Rp254
tp255
a(g23
I1
tp256
a(g6
g7
(g11
S'\xfe\xff\xff\xff\xff\xff\xff\xff'
p257
tp258
Rp259
tp260
a(g25
I-1
tp261
a(g27
I0
tp262
atp263
Rp264
I1
tp265
F0.000815146065883025
s(g4
((lp266
(g23
I0
tp267
a(g18
g51
tp268
a(g25
I9
tp269
a(g6
g7
(g11
S'\xf7\xff\xff\xff\xff\xff\xff\xff'
p270
tp271
Rp272
tp273
a(g27
I0
tp274
atp275
Rp276
I0
tp277
F0.0002724626500085942
s(g4
((lp278
(g23
I0
tp279
a(g6
g7
(g11
S'\xfb\xff\xff\xff\xff\xff\xff\xff'
p280
tp281
Rp282
tp283
a(g18
g7
(g11
S'\x04\x00\x00\x00\x00\x00\x00\x00'
p284
tp285
Rp286
tp287
a(g25
I9
tp288
a(g27
I0
tp289
atp290
Rp291
I1
tp292
F0.0005452601894058558
s(g4
((lp293
(g23
I0
tp294
a(g18
g7
(g11
S'\x01\x00\x00\x00\x00\x00\x00\x00'
p295
tp296
Rp297
tp298
a(g6
g7
(g11
S'\xf9\xff\xff\xff\xff\xff\xff\xff'
p299
tp300
Rp301
tp302
a(g25
I9
tp303
a(g27
I0
tp304
atp305
Rp306
I1
tp307
F0.0
s(g4
((lp308
(g23
I0
tp309
a(g18
g7
(g11
S'\x04\x00\x00\x00\x00\x00\x00\x00'
p310
tp311
Rp312
tp313
a(g25
I1
tp314
a(g6
g7
(g11
S'\xfd\xff\xff\xff\xff\xff\xff\xff'
p315
tp316
Rp317
tp318
a(g27
I0
tp319
atp320
Rp321
I1
tp322
F0.0
s(g4
((lp323
(g18
g7
(g11
S'\x04\x00\x00\x00\x00\x00\x00\x00'
p324
tp325
Rp326
tp327
a(g23
I1
tp328
a(g6
g7
(g11
S'\xf8\xff\xff\xff\xff\xff\xff\xff'
p329
tp330
Rp331
tp332
a(g25
I5
tp333
a(g27
I0
tp334
atp335
Rp336
I0
tp337
F-0.022868428444444443
s(g4
((lp338
(g23
I0
tp339
a(g18
g7
(g11
S'\x04\x00\x00\x00\x00\x00\x00\x00'
p340
tp341
Rp342
tp343
a(g6
g7
(g11
S'\xf9\xff\xff\xff\xff\xff\xff\xff'
p344
tp345
Rp346
tp347
a(g25
I6
tp348
a(g27
I0
tp349
atp350
Rp351
I1
tp352
F0.0010820455338233829
s(g4
((lp353
(g23
I0
tp354
a(g18
g7
(g11
S'\x01\x00\x00\x00\x00\x00\x00\x00'
p355
tp356
Rp357
tp358
a(g25
I0
tp359
a(g6
g7
(g11
S'\xfd\xff\xff\xff\xff\xff\xff\xff'
p360
tp361
Rp362
tp363
a(g27
I0
tp364
atp365
Rp366
I0
tp367
F0.0
s(g4
((lp368
(g18
g7
(g11
S'\x01\x00\x00\x00\x00\x00\x00\x00'
p369
tp370
Rp371
tp372
a(g23
I1
tp373
a(g6
g7
(g11
S'\xfe\xff\xff\xff\xff\xff\xff\xff'
p374
tp375
Rp376
tp377
a(g25
I5
tp378
a(g27
I0
tp379
atp380
Rp381
I1
tp382
F0.0
s(g4
((lp383
(g23
I0
tp384
a(g18
g7
(g11
S'\x04\x00\x00\x00\x00\x00\x00\x00'
p385
tp386
Rp387
tp388
a(g6
g7
(g11
S'\x07\x00\x00\x00\x00\x00\x00\x00'
p389
tp390
Rp391
tp392
a(g25
I7
tp393
a(g27
I0
tp394
atp395
Rp396
I1
tp397
F0.0
s(g4
((lp398
(g23
I0
tp399
a(g18
g154
tp400
a(g25
I7
tp401
a(g6
g7
(g11
S'\x05\x00\x00\x00\x00\x00\x00\x00'
p402
tp403
Rp404
tp405
a(g27
I0
tp406
atp407
Rp408
I1
tp409
F0.0
s(g4
((lp410
(g23
I0
tp411
a(g18
g7
(g11
S'\x01\x00\x00\x00\x00\x00\x00\x00'
p412
tp413
Rp414
tp415
a(g27
I1
tp416
a(g25
I8
tp417
a(g6
g7
(g11
S'\x04\x00\x00\x00\x00\x00\x00\x00'
p418
tp419
Rp420
tp421
atp422
Rp423
I1
tp424
F-3.9619637950637955e-06
s(g4
((lp425
(g23
I0
tp426
a(g18
g7
(g11
S'\x01\x00\x00\x00\x00\x00\x00\x00'
p427
tp428
Rp429
tp430
a(g6
g7
(g11
S'\x07\x00\x00\x00\x00\x00\x00\x00'
p431
tp432
Rp433
tp434
a(g25
I5
tp435
a(g27
I1
tp436
atp437
Rp438
I1
tp439
F-0.057078562887086355
s(g4
((lp440
(g23
I0
tp441
a(g18
g7
(g11
S'\x01\x00\x00\x00\x00\x00\x00\x00'
p442
tp443
Rp444
tp445
a(g25
I-2
tp446
a(g6
g7
(g11
S'\x02\x00\x00\x00\x00\x00\x00\x00'
p447
tp448
Rp449
tp450
a(g27
I0
tp451
atp452
Rp453
I0
tp454
F1.995377473435318e-14
s(g4
((lp455
(g23
I0
tp456
a(g18
g7
(g11
S'\x01\x00\x00\x00\x00\x00\x00\x00'
p457
tp458
Rp459
tp460
a(g25
I-2
tp461
a(g27
I1
tp462
a(g6
g7
(g11
S'\x05\x00\x00\x00\x00\x00\x00\x00'
p463
tp464
Rp465
tp466
atp467
Rp468
I0
tp469
F4.116694337909895e-14
s(g4
((lp470
(g23
I0
tp471
a(g18
g7
(g11
S'\x01\x00\x00\x00\x00\x00\x00\x00'
p472
tp473
Rp474
tp475
a(g25
I6
tp476
a(g6
g7
(g11
S'\x08\x00\x00\x00\x00\x00\x00\x00'
p477
tp478
Rp479
tp480
a(g27
I0
tp481
atp482
Rp483
I0
tp484
F0.0
s(g4
((lp485
(g23
I0
tp486
a(g18
g51
tp487
a(g25
I9
tp488
a(g6
g7
(g11
S'\xfd\xff\xff\xff\xff\xff\xff\xff'
p489
tp490
Rp491
tp492
a(g27
I0
tp493
atp494
Rp495
I1
tp496
F0.0
s(g4
((lp497
(g23
I0
tp498
a(g18
g7
(g11
S'\x04\x00\x00\x00\x00\x00\x00\x00'
p499
tp500
Rp501
tp502
a(g6
g7
(g11
S'\x07\x00\x00\x00\x00\x00\x00\x00'
p503
tp504
Rp505
tp506
a(g25
I6
tp507
a(g27
I0
tp508
atp509
Rp510
I1
tp511
F0.0
s(g4
((lp512
(g6
g7
(g11
S'\xfb\xff\xff\xff\xff\xff\xff\xff'
p513
tp514
Rp515
tp516
a(g18
g154
tp517
a(g23
I1
tp518
a(g25
I2
tp519
a(g27
I0
tp520
atp521
Rp522
I0
tp523
F0.0
s(g4
((lp524
(g23
I0
tp525
a(g18
g7
(g11
S'\x04\x00\x00\x00\x00\x00\x00\x00'
p526
tp527
Rp528
tp529
a(g25
I5
tp530
a(g6
g7
(g11
S'\x01\x00\x00\x00\x00\x00\x00\x00'
p531
tp532
Rp533
tp534
a(g27
I0
tp535
atp536
Rp537
I1
tp538
F0.0009659341983717253
s(g4
((lp539
(g23
I0
tp540
a(g18
g7
(g11
S'\x01\x00\x00\x00\x00\x00\x00\x00'
p541
tp542
Rp543
tp544
a(g25
I-3
tp545
a(g6
g7
(g11
S'\x00\x00\x00\x00\x00\x00\x00\x00'
p546
tp547
Rp548
tp549
a(g27
I0
tp550
atp551
Rp552
I1
tp553
F0.0
s(g4
((lp554
(g23
I0
tp555
a(g18
g286
tp556
a(g27
I1
tp557
a(g6
g7
(g11
S'\x01\x00\x00\x00\x00\x00\x00\x00'
p558
tp559
Rp560
tp561
a(g25
I1
tp562
atp563
Rp564
I0
tp565
F0.8130928001426604
s(g4
((lp566
(g23
I0
tp567
a(g18
g254
tp568
a(g6
g7
(g11
S'\x00\x00\x00\x00\x00\x00\x00\x00'
p569
tp570
Rp571
tp572
a(g25
I2
tp573
a(g27
I0
tp574
atp575
Rp576
I0
tp577
F0.5735079870950736
s(g4
((lp578
(g23
I0
tp579
a(g18
g7
(g11
S'\x04\x00\x00\x00\x00\x00\x00\x00'
p580
tp581
Rp582
tp583
a(g25
I5
tp584
a(g6
g7
(g11
S'\x00\x00\x00\x00\x00\x00\x00\x00'
p585
tp586
Rp587
tp588
a(g27
I0
tp589
atp590
Rp591
I0
tp592
F0.15817335549855838
s(g4
((lp593
(g23
I0
tp594
a(g18
g7
(g11
S'\x01\x00\x00\x00\x00\x00\x00\x00'
p595
tp596
Rp597
tp598
a(g6
g7
(g11
S'\xfe\xff\xff\xff\xff\xff\xff\xff'
p599
tp600
Rp601
tp602
a(g25
I8
tp603
a(g27
I0
tp604
atp605
Rp606
I1
tp607
F0.0
s(g4
((lp608
(g23
I0
tp609
a(g18
g528
tp610
a(g25
I7
tp611
a(g6
g7
(g11
S'\xfd\xff\xff\xff\xff\xff\xff\xff'
p612
tp613
Rp614
tp615
a(g27
I0
tp616
atp617
Rp618
I0
tp619
F0.07212069183204793
s(g4
((lp620
(g23
I0
tp621
a(g18
g7
(g11
S'\x01\x00\x00\x00\x00\x00\x00\x00'
p622
tp623
Rp624
tp625
a(g27
I1
tp626
a(g6
g7
(g11
S'\x08\x00\x00\x00\x00\x00\x00\x00'
p627
tp628
Rp629
tp630
a(g25
I4
tp631
atp632
Rp633
I1
tp634
F-0.9033658296546639
s(g4
((lp635
(g23
I0
tp636
a(g18
g179
tp637
a(g6
g7
(g11
S'\xff\xff\xff\xff\xff\xff\xff\xff'
p638
tp639
Rp640
tp641
a(g25
I7
tp642
a(g27
I0
tp643
atp644
Rp645
I0
tp646
F4.9870451394482895e-08
s(g4
((lp647
(g23
I0
tp648
a(g18
g7
(g11
S'\x01\x00\x00\x00\x00\x00\x00\x00'
p649
tp650
Rp651
tp652
a(g25
I6
tp653
a(g6
g7
(g11
S'\x04\x00\x00\x00\x00\x00\x00\x00'
p654
tp655
Rp656
tp657
a(g27
I0
tp658
atp659
Rp660
I1
tp661
F-0.00013322737621535556
s(g4
((lp662
(g23
I0
tp663
a(g18
g7
(g11
S'\x01\x00\x00\x00\x00\x00\x00\x00'
p664
tp665
Rp666
tp667
a(g27
I1
tp668
a(g25
I4
tp669
a(g6
g7
(g11
S'\x06\x00\x00\x00\x00\x00\x00\x00'
p670
tp671
Rp672
tp673
atp674
Rp675
I1
tp676
F-1.1129900801176975
s(g4
((lp677
(g23
I0
tp678
a(g18
g7
(g11
S'\x01\x00\x00\x00\x00\x00\x00\x00'
p679
tp680
Rp681
tp682
a(g25
I-2
tp683
a(g6
g7
(g11
S'\xfe\xff\xff\xff\xff\xff\xff\xff'
p684
tp685
Rp686
tp687
a(g27
I0
tp688
atp689
Rp690
I1
tp691
F0.0
s(g4
((lp692
(g23
I0
tp693
a(g18
g240
tp694
a(g6
g7
(g11
S'\t\x00\x00\x00\x00\x00\x00\x00'
p695
tp696
Rp697
tp698
a(g25
I7
tp699
a(g27
I0
tp700
atp701
Rp702
I1
tp703
F0.0
s(g4
((lp704
(g23
I0
tp705
a(g25
I8
tp706
a(g18
g7
(g11
S'\x04\x00\x00\x00\x00\x00\x00\x00'
p707
tp708
Rp709
tp710
a(g27
I1
tp711
a(g6
g7
(g11
S'\x00\x00\x00\x00\x00\x00\x00\x00'
p712
tp713
Rp714
tp715
atp716
Rp717
I0
tp718
F0.0399438181935962
s(g4
((lp719
(g23
I0
tp720
a(g18
g7
(g11
S'\x01\x00\x00\x00\x00\x00\x00\x00'
p721
tp722
Rp723
tp724
a(g25
I6
tp725
a(g27
I1
tp726
a(g6
g7
(g11
S'\x05\x00\x00\x00\x00\x00\x00\x00'
p727
tp728
Rp729
tp730
atp731
Rp732
I0
tp733
F-0.017450513070766657
s(g4
((lp734
(g23
I0
tp735
a(g18
g7
(g11
S'\x01\x00\x00\x00\x00\x00\x00\x00'
p736
tp737
Rp738
tp739
a(g25
I1
tp740
a(g27
I1
tp741
a(g6
g7
(g11
S'\x03\x00\x00\x00\x00\x00\x00\x00'
p742
tp743
Rp744
tp745
atp746
Rp747
I1
tp748
F-0.19500000000000003
s(g4
((lp749
(g23
I0
tp750
a(g18
g7
(g11
S'\x04\x00\x00\x00\x00\x00\x00\x00'
p751
tp752
Rp753
tp754
a(g25
I9
tp755
a(g6
g7
(g11
S'\xf8\xff\xff\xff\xff\xff\xff\xff'
p756
tp757
Rp758
tp759
a(g27
I0
tp760
atp761
Rp762
I1
tp763
F0.0
s(g4
((lp764
(g18
g7
(g11
S'\x04\x00\x00\x00\x00\x00\x00\x00'
p765
tp766
Rp767
tp768
a(g23
I1
tp769
a(g6
g7
(g11
S'\xff\xff\xff\xff\xff\xff\xff\xff'
p770
tp771
Rp772
tp773
a(g25
I-2
tp774
a(g27
I0
tp775
atp776
Rp777
I1
tp778
F0.0005805779545157956
s(g4
((lp779
(g18
g681
tp780
a(g25
I-2
tp781
a(g23
I1
tp782
a(g6
g7
(g11
S'\xfd\xff\xff\xff\xff\xff\xff\xff'
p783
tp784
Rp785
tp786
a(g27
I0
tp787
atp788
Rp789
I1
tp790
F0.0
s(g606
I0
tp791
F6.832634878234375e-09
s(g4
((lp792
(g23
I0
tp793
a(g18
g7
(g11
S'\x01\x00\x00\x00\x00\x00\x00\x00'
p794
tp795
Rp796
tp797
a(g25
I5
tp798
a(g27
I1
tp799
a(g6
g7
(g11
S'\x04\x00\x00\x00\x00\x00\x00\x00'
p800
tp801
Rp802
tp803
atp804
Rp805
I0
tp806
F-0.01577658708845556
s(g4
((lp807
(g23
I0
tp808
a(g6
g7
(g11
S'\x03\x00\x00\x00\x00\x00\x00\x00'
p809
tp810
Rp811
tp812
a(g18
g7
(g11
S'\x04\x00\x00\x00\x00\x00\x00\x00'
p813
tp814
Rp815
tp816
a(g27
I1
tp817
a(g25
I8
tp818
atp819
Rp820
I0
tp821
F0.02381076111416264
s(g4
((lp822
(g18
g7
(g11
S'\x01\x00\x00\x00\x00\x00\x00\x00'
p823
tp824
Rp825
tp826
a(g25
I6
tp827
a(g23
I1
tp828
a(g6
g7
(g11
S'\xfe\xff\xff\xff\xff\xff\xff\xff'
p829
tp830
Rp831
tp832
a(g27
I0
tp833
atp834
Rp835
I1
tp836
F0.0
s(g4
((lp837
(g23
I0
tp838
a(g18
g651
tp839
a(g25
I7
tp840
a(g6
g7
(g11
S'\x05\x00\x00\x00\x00\x00\x00\x00'
p841
tp842
Rp843
tp844
a(g27
I0
tp845
atp846
Rp847
I1
tp848
F-2.4934034284580304e-05
s(g4
((lp849
(g23
I0
tp850
a(g6
g7
(g11
S'\x03\x00\x00\x00\x00\x00\x00\x00'
p851
tp852
Rp853
tp854
a(g18
g7
(g11
S'\x04\x00\x00\x00\x00\x00\x00\x00'
p855
tp856
Rp857
tp858
a(g25
I0
tp859
a(g27
I1
tp860
atp861
Rp862
I1
tp863
F0.0
s(g4
((lp864
(g23
I0
tp865
a(g6
g7
(g11
S'\x03\x00\x00\x00\x00\x00\x00\x00'
p866
tp867
Rp868
tp869
a(g18
g7
(g11
S'\x04\x00\x00\x00\x00\x00\x00\x00'
p870
tp871
Rp872
tp873
a(g27
I1
tp874
a(g25
I3
tp875
atp876
Rp877
I1
tp878
F-0.19798674784890014
s(g4
((lp879
(g23
I0
tp880
a(g18
g7
(g11
S'\x01\x00\x00\x00\x00\x00\x00\x00'
p881
tp882
Rp883
tp884
a(g27
I1
tp885
a(g6
g7
(g11
S'\x00\x00\x00\x00\x00\x00\x00\x00'
p886
tp887
Rp888
tp889
a(g25
I3
tp890
atp891
Rp892
I0
tp893
F0.0017796735258002229
s(g4
((lp894
(g23
I0
tp895
a(g18
g543
tp896
a(g25
I-1
tp897
a(g27
I1
tp898
a(g6
g7
(g11
S'\x00\x00\x00\x00\x00\x00\x00\x00'
p899
tp900
Rp901
tp902
atp903
Rp904
I0
tp905
F7.915489274912096e-13
s(g4
((lp906
(g18
g69
tp907
a(g23
I1
tp908
a(g25
I2
tp909
a(g6
g7
(g11
S'\xfd\xff\xff\xff\xff\xff\xff\xff'
p910
tp911
Rp912
tp913
a(g27
I0
tp914
atp915
Rp916
I1
tp917
F0.1234164777395107
s(g4
((lp918
(g23
I0
tp919
a(g6
g7
(g11
S'\x07\x00\x00\x00\x00\x00\x00\x00'
p920
tp921
Rp922
tp923
a(g18
g7
(g11
S'\x04\x00\x00\x00\x00\x00\x00\x00'
p924
tp925
Rp926
tp927
a(g25
I5
tp928
a(g27
I1
tp929
atp930
Rp931
I0
tp932
F0.0
s(g4
((lp933
(g23
I0
tp934
a(g18
g474
tp935
a(g27
I1
tp936
a(g6
g7
(g11
S'\x08\x00\x00\x00\x00\x00\x00\x00'
p937
tp938
Rp939
tp940
a(g25
I7
tp941
atp942
Rp943
I0
tp944
F-0.17166994428495516
s(g4
((lp945
(g23
I0
tp946
a(g18
g7
(g11
S'\x01\x00\x00\x00\x00\x00\x00\x00'
p947
tp948
Rp949
tp950
a(g25
I3
tp951
a(g27
I1
tp952
a(g6
g7
(g11
S'\x03\x00\x00\x00\x00\x00\x00\x00'
p953
tp954
Rp955
tp956
atp957
Rp958
I0
tp959
F-0.15583333333333335
s(g4
((lp960
(g23
I0
tp961
a(g6
g7
(g11
S'\x03\x00\x00\x00\x00\x00\x00\x00'
p962
tp963
Rp964
tp965
a(g18
g7
(g11
S'\x04\x00\x00\x00\x00\x00\x00\x00'
p966
tp967
Rp968
tp969
a(g27
I1
tp970
a(g25
I2
tp971
atp972
Rp973
I1
tp974
F-0.07916666666666668
s(g4
((lp975
(g23
I0
tp976
a(g18
g444
tp977
a(g25
I-3
tp978
a(g6
g7
(g11
S'\x04\x00\x00\x00\x00\x00\x00\x00'
p979
tp980
Rp981
tp982
a(g27
I0
tp983
atp984
Rp985
I1
tp986
F0.0
s(g4
((lp987
(g18
g179
tp988
a(g6
g7
(g11
S'\xf9\xff\xff\xff\xff\xff\xff\xff'
p989
tp990
Rp991
tp992
a(g23
I1
tp993
a(g25
I5
tp994
a(g27
I0
tp995
atp996
Rp997
I1
tp998
F0.0
s(g4
((lp999
(g23
I0
tp1000
a(g18
g297
tp1001
a(g6
g7
(g11
S'\xfa\xff\xff\xff\xff\xff\xff\xff'
p1002
tp1003
Rp1004
tp1005
a(g25
I8
tp1006
a(g27
I0
tp1007
atp1008
Rp1009
I1
tp1010
F0.0
s(g4
((lp1011
(g18
g7
(g11
S'\x04\x00\x00\x00\x00\x00\x00\x00'
p1012
tp1013
Rp1014
tp1015
a(g23
I1
tp1016
a(g6
g7
(g11
S'\xff\xff\xff\xff\xff\xff\xff\xff'
p1017
tp1018
Rp1019
tp1020
a(g25
I-3
tp1021
a(g27
I0
tp1022
atp1023
Rp1024
I1
tp1025
F0.0
s(g4
((lp1026
(g25
I4
tp1027
a(g18
g883
tp1028
a(g23
I1
tp1029
a(g6
g7
(g11
S'\xfa\xff\xff\xff\xff\xff\xff\xff'
p1030
tp1031
Rp1032
tp1033
a(g27
I0
tp1034
atp1035
Rp1036
I0
tp1037
F-0.5000000000000001
s(g4
((lp1038
(g18
g7
(g11
S'\x01\x00\x00\x00\x00\x00\x00\x00'
p1039
tp1040
Rp1041
tp1042
a(g23
I1
tp1043
a(g6
g7
(g11
S'\xf7\xff\xff\xff\xff\xff\xff\xff'
p1044
tp1045
Rp1046
tp1047
a(g25
I5
tp1048
a(g27
I0
tp1049
atp1050
Rp1051
I1
tp1052
F0.0
s(g4
((lp1053
(g6
g7
(g11
S'\xfb\xff\xff\xff\xff\xff\xff\xff'
p1054
tp1055
Rp1056
tp1057
a(g18
g651
tp1058
a(g25
I-1
tp1059
a(g23
I1
tp1060
a(g27
I0
tp1061
atp1062
Rp1063
I0
tp1064
F-0.5516666666666667
s(g4
((lp1065
(g23
I0
tp1066
a(g25
I0
tp1067
a(g18
g7
(g11
S'\x04\x00\x00\x00\x00\x00\x00\x00'
p1068
tp1069
Rp1070
tp1071
a(g27
I1
tp1072
a(g6
g7
(g11
S'\x00\x00\x00\x00\x00\x00\x00\x00'
p1073
tp1074
Rp1075
tp1076
atp1077
Rp1078
I1
tp1079
F0.0
s(g4
((lp1080
(g23
I0
tp1081
a(g18
g459
tp1082
a(g25
I-1
tp1083
a(g27
I1
tp1084
a(g6
g7
(g11
S'\x04\x00\x00\x00\x00\x00\x00\x00'
p1085
tp1086
Rp1087
tp1088
atp1089
Rp1090
I1
tp1091
F0.0
s(g4
((lp1092
(g23
I0
tp1093
a(g18
g429
tp1094
a(g6
g7
(g11
S'\x07\x00\x00\x00\x00\x00\x00\x00'
p1095
tp1096
Rp1097
tp1098
a(g27
I1
tp1099
a(g25
I4
tp1100
atp1101
Rp1102
I1
tp1103
F-0.4687101537806435
s(g4
((lp1104
(g18
g7
(g11
S'\x04\x00\x00\x00\x00\x00\x00\x00'
p1105
tp1106
Rp1107
tp1108
a(g23
I1
tp1109
a(g6
g7
(g11
S'\xfe\xff\xff\xff\xff\xff\xff\xff'
p1110
tp1111
Rp1112
tp1113
a(g25
I-2
tp1114
a(g27
I0
tp1115
atp1116
Rp1117
I1
tp1118
F0.0012678458567888535
s(g4
((lp1119
(g18
g7
(g11
S'\x04\x00\x00\x00\x00\x00\x00\x00'
p1120
tp1121
Rp1122
tp1123
a(g23
I1
tp1124
a(g6
g7
(g11
S'\xf7\xff\xff\xff\xff\xff\xff\xff'
p1125
tp1126
Rp1127
tp1128
a(g25
I-2
tp1129
a(g27
I0
tp1130
atp1131
Rp1132
I0
tp1133
F0.0
s(g4
((lp1134
(g23
I0
tp1135
a(g18
g240
tp1136
a(g6
I1
tp1137
a(g25
I9
tp1138
a(g27
I0
tp1139
atp1140
Rp1141
I0
tp1142
F7.18202496179799e-08
s(g4
((lp1143
(g23
I0
tp1144
a(g6
g7
(g11
S'\x03\x00\x00\x00\x00\x00\x00\x00'
p1145
tp1146
Rp1147
tp1148
a(g18
g968
tp1149
a(g25
I4
tp1150
a(g27
I0
tp1151
atp1152
Rp1153
I1
tp1154
F-0.31084611111111105
s(g4
((lp1155
(g23
I0
tp1156
a(g18
g7
(g11
S'\x04\x00\x00\x00\x00\x00\x00\x00'
p1157
tp1158
Rp1159
tp1160
a(g25
I8
tp1161
a(g6
g7
(g11
S'\x01\x00\x00\x00\x00\x00\x00\x00'
p1162
tp1163
Rp1164
tp1165
a(g27
I0
tp1166
atp1167
Rp1168
I1
tp1169
F0.000357399358635841
s(g4
((lp1170
(g23
I0
tp1171
a(g18
g7
(g11
S'\x01\x00\x00\x00\x00\x00\x00\x00'
p1172
tp1173
Rp1174
tp1175
a(g27
I1
tp1176
a(g25
I8
tp1177
a(g6
g7
(g11
S'\x0b\x00\x00\x00\x00\x00\x00\x00'
p1178
tp1179
Rp1180
tp1181
atp1182
Rp1183
I0
tp1184
F-0.41666666666666674
s(g4
((lp1185
(g18
g21
tp1186
a(g6
g7
(g11
S'\xf9\xff\xff\xff\xff\xff\xff\xff'
p1187
tp1188
Rp1189
tp1190
a(g23
I1
tp1191
a(g25
I-1
tp1192
a(g27
I0
tp1193
atp1194
Rp1195
I1
tp1196
F0.0
s(g4
((lp1197
(g23
I0
tp1198
a(g18
g651
tp1199
a(g25
I9
tp1200
a(g6
I5
tp1201
a(g27
I0
tp1202
atp1203
Rp1204
I1
tp1205
F0.0
s(g4
((lp1206
(g23
I0
tp1207
a(g18
g7
(g11
S'\x01\x00\x00\x00\x00\x00\x00\x00'
p1208
tp1209
Rp1210
tp1211
a(g6
g7
(g11
S'\x06\x00\x00\x00\x00\x00\x00\x00'
p1212
tp1213
Rp1214
tp1215
a(g25
I8
tp1216
a(g27
I0
tp1217
atp1218
Rp1219
I1
tp1220
F0.0
s(g4
((lp1221
(g23
I0
tp1222
a(g18
g681
tp1223
a(g6
g7
(g11
S'\x01\x00\x00\x00\x00\x00\x00\x00'
p1224
tp1225
Rp1226
tp1227
a(g25
I0
tp1228
a(g27
I1
tp1229
atp1230
Rp1231
I0
tp1232
F6.251004883163652e-14
s(g4
((lp1233
(g23
I0
tp1234
a(g18
g7
(g11
S'\x01\x00\x00\x00\x00\x00\x00\x00'
p1235
tp1236
Rp1237
tp1238
a(g25
I5
tp1239
a(g27
I1
tp1240
a(g6
g7
(g11
S'\x0b\x00\x00\x00\x00\x00\x00\x00'
p1241
tp1242
Rp1243
tp1244
atp1245
Rp1246
I0
tp1247
F-0.10455955555555557
s(g4
((lp1248
(g23
I0
tp1249
a(g18
g342
tp1250
a(g6
I-1
tp1251
a(g25
I9
tp1252
a(g27
I0
tp1253
atp1254
Rp1255
I1
tp1256
F0.0
s(g4
((lp1257
(g23
I0
tp1258
a(g18
g738
tp1259
a(g25
I6
tp1260
a(g6
g7
(g11
S'\x03\x00\x00\x00\x00\x00\x00\x00'
p1261
tp1262
Rp1263
tp1264
a(g27
I0
tp1265
atp1266
Rp1267
I1
tp1268
F0.0
s(g4
((lp1269
(g23
I0
tp1270
a(g18
g7
(g11
S'\x04\x00\x00\x00\x00\x00\x00\x00'
p1271
tp1272
Rp1273
tp1274
a(g25
I-3
tp1275
a(g6
g7
(g11
S'\x01\x00\x00\x00\x00\x00\x00\x00'
p1276
tp1277
Rp1278
tp1279
a(g27
I0
tp1280
atp1281
Rp1282
I1
tp1283
F0.0
s(g4
((lp1284
(g23
I0
tp1285
a(g18
g240
tp1286
a(g6
g7
(g11
S'\x01\x00\x00\x00\x00\x00\x00\x00'
p1287
tp1288
Rp1289
tp1290
a(g27
I1
tp1291
a(g25
I1
tp1292
atp1293
Rp1294
I1
tp1295
F0.0
s(g4
((lp1296
(g23
I0
tp1297
a(g18
g681
tp1298
a(g6
g7
(g11
S'\x01\x00\x00\x00\x00\x00\x00\x00'
p1299
tp1300
Rp1301
tp1302
a(g27
I1
tp1303
a(g25
I6
tp1304
atp1305
Rp1306
I1
tp1307
F0.0
s(g4
((lp1308
(g23
I0
tp1309
a(g18
g7
(g11
S'\x01\x00\x00\x00\x00\x00\x00\x00'
p1310
tp1311
Rp1312
tp1313
a(g6
g7
(g11
S'\x01\x00\x00\x00\x00\x00\x00\x00'
p1314
tp1315
Rp1316
tp1317
a(g27
I1
tp1318
a(g25
I2
tp1319
atp1320
Rp1321
I1
tp1322
F0.0
s(g4
((lp1323
(g18
g179
tp1324
a(g25
I6
tp1325
a(g23
I1
tp1326
a(g6
g7
(g11
S'\xfc\xff\xff\xff\xff\xff\xff\xff'
p1327
tp1328
Rp1329
tp1330
a(g27
I0
tp1331
atp1332
Rp1333
I1
tp1334
F3.852186174847848e-09
s(g4
((lp1335
(g23
I0
tp1336
a(g18
g474
tp1337
a(g27
I1
tp1338
a(g6
g7
(g11
S'\x08\x00\x00\x00\x00\x00\x00\x00'
p1339
tp1340
Rp1341
tp1342
a(g25
I8
tp1343
atp1344
Rp1345
I0
tp1346
F0.0
s(g4
((lp1347
(g23
I0
tp1348
a(g18
g179
tp1349
a(g6
g7
(g11
S'\x01\x00\x00\x00\x00\x00\x00\x00'
p1350
tp1351
Rp1352
tp1353
a(g25
I1
tp1354
a(g27
I0
tp1355
atp1356
Rp1357
I0
tp1358
F0.2542935836519276
s(g4
((lp1359
(g18
g7
(g11
S'\x04\x00\x00\x00\x00\x00\x00\x00'
p1360
tp1361
Rp1362
tp1363
a(g23
I1
tp1364
a(g25
I-2
tp1365
a(g6
g7
(g11
S'\xf6\xff\xff\xff\xff\xff\xff\xff'
p1366
tp1367
Rp1368
tp1369
a(g27
I0
tp1370
atp1371
Rp1372
I1
tp1373
F0.0
s(g4
((lp1374
(g23
I0
tp1375
a(g18
g7
(g11
S'\x01\x00\x00\x00\x00\x00\x00\x00'
p1376
tp1377
Rp1378
tp1379
a(g6
g7
(g11
S'\x07\x00\x00\x00\x00\x00\x00\x00'
p1380
tp1381
Rp1382
tp1383
a(g25
I7
tp1384
a(g27
I0
tp1385
atp1386
Rp1387
I0
tp1388
F6.6089716069759036e-15
s(g4
((lp1389
(g25
I4
tp1390
a(g18
g7
(g11
S'\x04\x00\x00\x00\x00\x00\x00\x00'
p1391
tp1392
Rp1393
tp1394
a(g23
I1
tp1395
a(g6
g7
(g11
S'\xf7\xff\xff\xff\xff\xff\xff\xff'
p1396
tp1397
Rp1398
tp1399
a(g27
I0
tp1400
atp1401
Rp1402
I1
tp1403
F-0.777511131111111
s(g4
((lp1404
(g23
I0
tp1405
a(g18
g21
tp1406
a(g6
g7
(g11
S'\x01\x00\x00\x00\x00\x00\x00\x00'
p1407
tp1408
Rp1409
tp1410
a(g25
I5
tp1411
a(g27
I0
tp1412
atp1413
Rp1414
I1
tp1415
F0.0
s(g4
((lp1416
(g23
I0
tp1417
a(g18
g7
(g11
S'\x01\x00\x00\x00\x00\x00\x00\x00'
p1418
tp1419
Rp1420
tp1421
a(g6
g7
(g11
S'\xfa\xff\xff\xff\xff\xff\xff\xff'
p1422
tp1423
Rp1424
tp1425
a(g25
I5
tp1426
a(g27
I0
tp1427
atp1428
Rp1429
I1
tp1430
F0.0
s(g4
((lp1431
(g23
I0
tp1432
a(g18
g7
(g11
S'\x04\x00\x00\x00\x00\x00\x00\x00'
p1433
tp1434
Rp1435
tp1436
a(g27
I1
tp1437
a(g25
I6
tp1438
a(g6
g7
(g11
S'\x05\x00\x00\x00\x00\x00\x00\x00'
p1439
tp1440
Rp1441
tp1442
atp1443
Rp1444
I0
tp1445
F1.9399864891589318e-05
s(g4
((lp1446
(g23
I0
tp1447
a(g6
g7
(g11
S'\x03\x00\x00\x00\x00\x00\x00\x00'
p1448
tp1449
Rp1450
tp1451
a(g18
g872
tp1452
a(g25
I3
tp1453
a(g27
I0
tp1454
atp1455
Rp1456
I1
tp1457
F0.0
s(g4
((lp1458
(g23
I0
tp1459
a(g25
I1
tp1460
a(g18
g767
tp1461
a(g6
g7
(g11
S'\xff\xff\xff\xff\xff\xff\xff\xff'
p1462
tp1463
Rp1464
tp1465
a(g27
I0
tp1466
atp1467
Rp1468
I0
tp1469
F0.7934130332702943
s(g4
((lp1470
(g23
I0
tp1471
a(g18
g459
tp1472
a(g25
I9
tp1473
a(g27
I1
tp1474
a(g6
g7
(g11
S'\x06\x00\x00\x00\x00\x00\x00\x00'
p1475
tp1476
Rp1477
tp1478
atp1479
Rp1480
I0
tp1481
F2.933956644346323e-18
s(g4
((lp1482
(g18
g357
tp1483
a(g25
I9
tp1484
a(g23
I1
tp1485
a(g6
g7
(g11
S'\xf6\xff\xff\xff\xff\xff\xff\xff'
p1486
tp1487
Rp1488
tp1489
a(g27
I0
tp1490
atp1491
Rp1492
I0
tp1493
F0.0
s(g4
((lp1494
(g23
I0
tp1495
a(g6
g7
(g11
S'\x04\x00\x00\x00\x00\x00\x00\x00'
p1496
tp1497
Rp1498
tp1499
a(g18
g154
tp1500
a(g25
I6
tp1501
a(g27
I0
tp1502
atp1503
Rp1504
I1
tp1505
F0.0
s(g4
((lp1506
(g6
g7
(g11
S'\xfc\xff\xff\xff\xff\xff\xff\xff'
p1507
tp1508
Rp1509
tp1510
a(g18
g7
(g11
S'\x04\x00\x00\x00\x00\x00\x00\x00'
p1511
tp1512
Rp1513
tp1514
a(g23
I1
tp1515
a(g25
I2
tp1516
a(g27
I0
tp1517
atp1518
Rp1519
I1
tp1520
F0.17476797482114903
s(g4
((lp1521
(g23
I0
tp1522
a(g18
g666
tp1523
a(g6
g7
(g11
S'\x06\x00\x00\x00\x00\x00\x00\x00'
p1524
tp1525
Rp1526
tp1527
a(g25
I5
tp1528
a(g27
I0
tp1529
atp1530
Rp1531
I0
tp1532
F0.0
s(g4
((lp1533
(g23
I0
tp1534
a(g18
g357
tp1535
a(g25
I4
tp1536
a(g6
g7
(g11
S'\xfc\xff\xff\xff\xff\xff\xff\xff'
p1537
tp1538
Rp1539
tp1540
a(g27
I0
tp1541
atp1542
Rp1543
I1
tp1544
F0.0
s(g4
((lp1545
(g23
I0
tp1546
a(g6
g7
(g11
S'\x04\x00\x00\x00\x00\x00\x00\x00'
p1547
tp1548
Rp1549
tp1550
a(g18
g7
(g11
S'\x04\x00\x00\x00\x00\x00\x00\x00'
p1551
tp1552
Rp1553
tp1554
a(g27
I1
tp1555
a(g25
I4
tp1556
atp1557
Rp1558
I0
tp1559
F-0.2510382302252413
s(g4
((lp1560
(g23
I0
tp1561
a(g18
g543
tp1562
a(g6
g7
(g11
S'\xfe\xff\xff\xff\xff\xff\xff\xff'
p1563
tp1564
Rp1565
tp1566
a(g25
I2
tp1567
a(g27
I0
tp1568
atp1569
Rp1570
I1
tp1571
F0.0
s(g4
((lp1572
(g6
g7
(g11
S'\xfb\xff\xff\xff\xff\xff\xff\xff'
p1573
tp1574
Rp1575
tp1576
a(g18
g179
tp1577
a(g25
I6
tp1578
a(g23
I1
tp1579
a(g27
I0
tp1580
atp1581
Rp1582
I0
tp1583
F-0.405
s(g4
((lp1584
(g18
g681
tp1585
a(g25
I-1
tp1586
a(g23
I1
tp1587
a(g6
g7
(g11
S'\xff\xff\xff\xff\xff\xff\xff\xff'
p1588
tp1589
Rp1590
tp1591
a(g27
I0
tp1592
atp1593
Rp1594
I0
tp1595
F1.9375707973156957e-18
s(g4
((lp1596
(g6
g7
(g11
S'\xfb\xff\xff\xff\xff\xff\xff\xff'
p1597
tp1598
Rp1599
tp1600
a(g18
g681
tp1601
a(g25
I9
tp1602
a(g23
I1
tp1603
a(g27
I0
tp1604
atp1605
Rp1606
I0
tp1607
F0.0
s(g4
((lp1608
(g23
I0
tp1609
a(g18
g1312
tp1610
a(g25
I0
tp1611
a(g27
I1
tp1612
a(g6
g7
(g11
S'\x04\x00\x00\x00\x00\x00\x00\x00'
p1613
tp1614
Rp1615
tp1616
atp1617
Rp1618
I0
tp1619
F0.0
s(g4
((lp1620
(g18
g254
tp1621
a(g23
I1
tp1622
a(g25
I-1
tp1623
a(g6
g7
(g11
S'\xfd\xff\xff\xff\xff\xff\xff\xff'
p1624
tp1625
Rp1626
tp1627
a(g27
I0
tp1628
atp1629
Rp1630
I1
tp1631
F0.0005739528578763756
s(g4
((lp1632
(g23
I0
tp1633
a(g18
g1312
tp1634
a(g6
g7
(g11
S'\x02\x00\x00\x00\x00\x00\x00\x00'
p1635
tp1636
Rp1637
tp1638
a(g27
I1
tp1639
a(g25
I1
tp1640
atp1641
Rp1642
I0
tp1643
F0.0814783912010358
s(g4
((lp1644
(g23
I0
tp1645
a(g18
g196
tp1646
a(g25
I5
tp1647
a(g27
I1
tp1648
a(g6
g7
(g11
S'\x00\x00\x00\x00\x00\x00\x00\x00'
p1649
tp1650
Rp1651
tp1652
atp1653
Rp1654
I0
tp1655
F0.15604149000481737
s(g4
((lp1656
(g23
I0
tp1657
a(g18
g7
(g11
S'\x01\x00\x00\x00\x00\x00\x00\x00'
p1658
tp1659
Rp1660
tp1661
a(g6
g7
(g11
S'\x02\x00\x00\x00\x00\x00\x00\x00'
p1662
tp1663
Rp1664
tp1665
a(g27
I1
tp1666
a(g25
I5
tp1667
atp1668
Rp1669
I1
tp1670
F0.0
s(g4
((lp1671
(g23
I0
tp1672
a(g6
g7
(g11
S'\x04\x00\x00\x00\x00\x00\x00\x00'
p1673
tp1674
Rp1675
tp1676
a(g18
g815
tp1677
a(g27
I1
tp1678
a(g25
I7
tp1679
atp1680
Rp1681
I1
tp1682
F0.0
s(g4
((lp1683
(g23
I0
tp1684
a(g18
g796
tp1685
a(g27
I1
tp1686
a(g25
I4
tp1687
a(g6
g7
(g11
S'\x04\x00\x00\x00\x00\x00\x00\x00'
p1688
tp1689
Rp1690
tp1691
atp1692
Rp1693
I1
tp1694
F0.0
s(g789
I0
tp1695
F0.0
s(g4
((lp1696
(g18
g21
tp1697
a(g23
I1
tp1698
a(g6
g7
(g11
S'\xfe\xff\xff\xff\xff\xff\xff\xff'
p1699
tp1700
Rp1701
tp1702
a(g25
I2
tp1703
a(g27
I0
tp1704
atp1705
Rp1706
I1
tp1707
F0.0
s(g4
((lp1708
(g23
I0
tp1709
a(g18
g857
tp1710
a(g27
I1
tp1711
a(g6
g7
(g11
S'\x05\x00\x00\x00\x00\x00\x00\x00'
p1712
tp1713
Rp1714
tp1715
a(g25
I9
tp1716
atp1717
Rp1718
I0
tp1719
F0.00014591773529486546
s(g4
((lp1720
(g23
I0
tp1721
a(g18
g825
tp1722
a(g25
I9
tp1723
a(g6
I-1
tp1724
a(g27
I0
tp1725
atp1726
Rp1727
I0
tp1728
F1.4269531862619181e-08
s(g4
((lp1729
(g18
g254
tp1730
a(g23
I1
tp1731
a(g6
g7
(g11
S'\xfa\xff\xff\xff\xff\xff\xff\xff'
p1732
tp1733
Rp1734
tp1735
a(g25
I-2
tp1736
a(g27
I0
tp1737
atp1738
Rp1739
I0
tp1740
F-0.5566666666666666
s(g4
((lp1741
(g23
I0
tp1742
a(g18
g825
tp1743
a(g27
I1
tp1744
a(g6
g7
(g11
S'\x05\x00\x00\x00\x00\x00\x00\x00'
p1745
tp1746
Rp1747
tp1748
a(g25
I9
tp1749
atp1750
Rp1751
I0
tp1752
F-6.68369397299863e-08
s(g4
((lp1753
(g18
g80
tp1754
a(g23
I1
tp1755
a(g25
I5
tp1756
a(g6
g7
(g11
S'\xf6\xff\xff\xff\xff\xff\xff\xff'
p1757
tp1758
Rp1759
tp1760
a(g27
I0
tp1761
atp1762
Rp1763
I0
tp1764
F-0.4566666666666668
s(g4
((lp1765
(g18
g21
tp1766
a(g25
I1
tp1767
a(g23
I1
tp1768
a(g6
g7
(g11
S'\xfc\xff\xff\xff\xff\xff\xff\xff'
p1769
tp1770
Rp1771
tp1772
a(g27
I0
tp1773
atp1774
Rp1775
I0
tp1776
F-0.16996648794444444
s(g4
((lp1777
(g25
I4
tp1778
a(g18
g7
(g11
S'\x04\x00\x00\x00\x00\x00\x00\x00'
p1779
tp1780
Rp1781
tp1782
a(g23
I1
tp1783
a(g6
g7
(g11
S'\xfd\xff\xff\xff\xff\xff\xff\xff'
p1784
tp1785
Rp1786
tp1787
a(g27
I0
tp1788
atp1789
Rp1790
I0
tp1791
F-0.2080577059925636
s(g4
((lp1792
(g23
I0
tp1793
a(g18
g7
(g11
S'\x04\x00\x00\x00\x00\x00\x00\x00'
p1794
tp1795
Rp1796
tp1797
a(g25
I5
tp1798
a(g6
g7
(g11
S'\xf8\xff\xff\xff\xff\xff\xff\xff'
p1799
tp1800
Rp1801
tp1802
a(g27
I0
tp1803
atp1804
Rp1805
I0
tp1806
F-0.014216764465197464
s(g4
((lp1807
(g23
I0
tp1808
a(g18
g7
(g11
S'\x01\x00\x00\x00\x00\x00\x00\x00'
p1809
tp1810
Rp1811
tp1812
a(g6
g7
(g11
S'\x02\x00\x00\x00\x00\x00\x00\x00'
p1813
tp1814
Rp1815
tp1816
a(g27
I1
tp1817
a(g25
I4
tp1818
atp1819
Rp1820
I0
tp1821
F1.5806218896896073e-10
s(g4
((lp1822
(g18
g80
tp1823
a(g25
I9
tp1824
a(g23
I1
tp1825
a(g6
g7
(g11
S'\xfc\xff\xff\xff\xff\xff\xff\xff'
p1826
tp1827
Rp1828
tp1829
a(g27
I0
tp1830
atp1831
Rp1832
I1
tp1833
F0.0
s(g4
((lp1834
(g23
I0
tp1835
a(g6
g7
(g11
S'\x04\x00\x00\x00\x00\x00\x00\x00'
p1836
tp1837
Rp1838
tp1839
a(g18
g7
(g11
S'\x04\x00\x00\x00\x00\x00\x00\x00'
p1840
tp1841
Rp1842
tp1843
a(g25
I0
tp1844
a(g27
I1
tp1845
atp1846
Rp1847
I1
tp1848
F0.0
s(g4
((lp1849
(g25
I-3
tp1850
a(g18
g1107
tp1851
a(g23
I1
tp1852
a(g6
g7
(g11
S'\xfd\xff\xff\xff\xff\xff\xff\xff'
p1853
tp1854
Rp1855
tp1856
a(g27
I0
tp1857
atp1858
Rp1859
I0
tp1860
F-0.20928516767528083
s(g4
((lp1861
(g18
g1362
tp1862
a(g23
I1
tp1863
a(g6
g7
(g11
S'\xf8\xff\xff\xff\xff\xff\xff\xff'
p1864
tp1865
Rp1866
tp1867
a(g25
I-1
tp1868
a(g27
I0
tp1869
atp1870
Rp1871
I1
tp1872
F0.0
s(g4
((lp1873
(g25
I8
tp1874
a(g18
g7
(g11
S'\x04\x00\x00\x00\x00\x00\x00\x00'
p1875
tp1876
Rp1877
tp1878
a(g23
I1
tp1879
a(g6
g7
(g11
S'\xfa\xff\xff\xff\xff\xff\xff\xff'
p1880
tp1881
Rp1882
tp1883
a(g27
I0
tp1884
atp1885
Rp1886
I0
tp1887
F-0.4716666666666668
s(g4
((lp1888
(g6
g7
(g11
S'\xfc\xff\xff\xff\xff\xff\xff\xff'
p1889
tp1890
Rp1891
tp1892
a(g18
g1877
tp1893
a(g23
I1
tp1894
a(g25
I9
tp1895
a(g27
I0
tp1896
atp1897
Rp1898
I0
tp1899
F-0.3765225473706107
s(g4
((lp1900
(g23
I0
tp1901
a(g18
g1273
tp1902
a(g6
g7
(g11
S'\xfa\xff\xff\xff\xff\xff\xff\xff'
p1903
tp1904
Rp1905
tp1906
a(g25
I5
tp1907
a(g27
I0
tp1908
atp1909
Rp1910
I1
tp1911
F-0.03478851248228365
s(g4
((lp1912
(g23
I0
tp1913
a(g18
g738
tp1914
a(g25
I3
tp1915
a(g6
g7
(g11
S'\x00\x00\x00\x00\x00\x00\x00\x00'
p1916
tp1917
Rp1918
tp1919
a(g27
I0
tp1920
atp1921
Rp1922
I0
tp1923
F0.018468714641754976
s(g4
((lp1924
(g23
I0
tp1925
a(g18
g7
(g11
S'\x04\x00\x00\x00\x00\x00\x00\x00'
p1926
tp1927
Rp1928
tp1929
a(g6
g7
(g11
S'\x02\x00\x00\x00\x00\x00\x00\x00'
p1930
tp1931
Rp1932
tp1933
a(g27
I1
tp1934
a(g25
I9
tp1935
atp1936
Rp1937
I1
tp1938
F0.0
s(g4
((lp1939
(g23
I0
tp1940
a(g18
g7
(g11
S'\x04\x00\x00\x00\x00\x00\x00\x00'
p1941
tp1942
Rp1943
tp1944
a(g25
I-1
tp1945
a(g6
g7
(g11
S'\x00\x00\x00\x00\x00\x00\x00\x00'
p1946
tp1947
Rp1948
tp1949
a(g27
I0
tp1950
atp1951
Rp1952
I0
tp1953
F0.01138235908635842
s(g4
((lp1954
(g25
I4
tp1955
a(g18
g7
(g11
S'\x04\x00\x00\x00\x00\x00\x00\x00'
p1956
tp1957
Rp1958
tp1959
a(g23
I1
tp1960
a(g6
g7
(g11
S'\xf5\xff\xff\xff\xff\xff\xff\xff'
p1961
tp1962
Rp1963
tp1964
a(g27
I0
tp1965
atp1966
Rp1967
I0
tp1968
F0.0
s(g4
((lp1969
(g23
I0
tp1970
a(g18
g883
tp1971
a(g6
g7
(g11
S'\xff\xff\xff\xff\xff\xff\xff\xff'
p1972
tp1973
Rp1974
tp1975
a(g25
I5
tp1976
a(g27
I0
tp1977
atp1978
Rp1979
I0
tp1980
F2.122872874692308e-06
s(g4
((lp1981
(g18
g7
(g11
S'\x01\x00\x00\x00\x00\x00\x00\x00'
p1982
tp1983
Rp1984
tp1985
a(g25
I6
tp1986
a(g23
I1
tp1987
a(g6
g7
(g11
S'\xf5\xff\xff\xff\xff\xff\xff\xff'
p1988
tp1989
Rp1990
tp1991
a(g27
I0
tp1992
atp1993
Rp1994
I0
tp1995
F0.0
s(g4
((lp1996
(g23
I0
tp1997
a(g18
g297
tp1998
a(g25
I-2
tp1999
a(g6
g7
(g11
S'\xfc\xff\xff\xff\xff\xff\xff\xff'
p2000
tp2001
Rp2002
tp2003
a(g27
I0
tp2004
atp2005
Rp2006
I1
tp2007
F0.0
s(g4
((lp2008
(g23
I0
tp2009
a(g18
g357
tp2010
a(g25
I-3
tp2011
a(g27
I1
tp2012
a(g6
g7
(g11
S'\x00\x00\x00\x00\x00\x00\x00\x00'
p2013
tp2014
Rp2015
tp2016
atp2017
Rp2018
I1
tp2019
F0.0
s(g4
((lp2020
(g23
I0
tp2021
a(g18
g1070
tp2022
a(g25
I9
tp2023
a(g6
g7
(g11
S'\xf9\xff\xff\xff\xff\xff\xff\xff'
p2024
tp2025
Rp2026
tp2027
a(g27
I0
tp2028
atp2029
Rp2030
I0
tp2031
F0.018104065649533783
s(g4
((lp2032
(g23
I0
tp2033
a(g18
g825
tp2034
a(g25
I4
tp2035
a(g6
g7
(g11
S'\x05\x00\x00\x00\x00\x00\x00\x00'
p2036
tp2037
Rp2038
tp2039
a(g27
I0
tp2040
atp2041
Rp2042
I0
tp2043
F-0.28250000000000003
s(g4
((lp2044
(g23
I0
tp2045
a(g18
g444
tp2046
a(g6
g7
(g11
S'\n\x00\x00\x00\x00\x00\x00\x00'
p2047
tp2048
Rp2049
tp2050
a(g25
I7
tp2051
a(g27
I0
tp2052
atp2053
Rp2054
I0
tp2055
F0.0
s(g4
((lp2056
(g23
I0
tp2057
a(g18
g179
tp2058
a(g6
g7
(g11
S'\x01\x00\x00\x00\x00\x00\x00\x00'
p2059
tp2060
Rp2061
tp2062
a(g27
I1
tp2063
a(g25
I-2
tp2064
atp2065
Rp2066
I1
tp2067
F0.0
s(g4
((lp2068
(g23
I0
tp2069
a(g18
g429
tp2070
a(g27
I1
tp2071
a(g6
g7
(g11
S'\x00\x00\x00\x00\x00\x00\x00\x00'
p2072
tp2073
Rp2074
tp2075
a(g25
I7
tp2076
atp2077
Rp2078
I0
tp2079
F1.260324839599016e-07
s(g4
((lp2080
(g23
I0
tp2081
a(g6
g7
(g11
S'\xfb\xff\xff\xff\xff\xff\xff\xff'
p2082
tp2083
Rp2084
tp2085
a(g18
g1877
tp2086
a(g25
I6
tp2087
a(g27
I0
tp2088
atp2089
Rp2090
I0
tp2091
F0.001616870053198099
s(g4
((lp2092
(g23
I0
tp2093
a(g25
I3
tp2094
a(g18
g7
(g11
S'\x04\x00\x00\x00\x00\x00\x00\x00'
p2095
tp2096
Rp2097
tp2098
a(g6
g7
(g11
S'\xfd\xff\xff\xff\xff\xff\xff\xff'
p2099
tp2100
Rp2101
tp2102
a(g27
I0
tp2103
atp2104
Rp2105
I0
tp2106
F0.34284112842933673
s(g4
((lp2107
(g23
I0
tp2108
a(g18
g7
(g11
S'\x01\x00\x00\x00\x00\x00\x00\x00'
p2109
tp2110
Rp2111
tp2112
a(g6
g7
(g11
S'\x07\x00\x00\x00\x00\x00\x00\x00'
p2113
tp2114
Rp2115
tp2116
a(g27
I1
tp2117
a(g25
I-1
tp2118
atp2119
Rp2120
I1
tp2121
F0.0
s(g4
((lp2122
(g23
I0
tp2123
a(g18
g7
(g11
S'\x04\x00\x00\x00\x00\x00\x00\x00'
p2124
tp2125
Rp2126
tp2127
a(g25
I-2
tp2128
a(g6
g7
(g11
S'\x05\x00\x00\x00\x00\x00\x00\x00'
p2129
tp2130
Rp2131
tp2132
a(g27
I0
tp2133
atp2134
Rp2135
I1
tp2136
F0.0
s(g4
((lp2137
(g23
I0
tp2138
a(g18
g543
tp2139
a(g25
I1
tp2140
a(g6
g7
(g11
S'\xff\xff\xff\xff\xff\xff\xff\xff'
p2141
tp2142
Rp2143
tp2144
a(g27
I0
tp2145
atp2146
Rp2147
I0
tp2148
F0.6122355564538575
s(g4
((lp2149
(g25
I5
tp2150
a(g18
g1393
tp2151
a(g23
I1
tp2152
a(g6
g7
(g11
S'\xfd\xff\xff\xff\xff\xff\xff\xff'
p2153
tp2154
Rp2155
tp2156
a(g27
I0
tp2157
atp2158
Rp2159
I1
tp2160
F0.16183356841809246
s(g4
((lp2161
(g23
I0
tp2162
a(g18
g7
(g11
S'\x04\x00\x00\x00\x00\x00\x00\x00'
p2163
tp2164
Rp2165
tp2166
a(g25
I9
tp2167
a(g27
I1
tp2168
a(g6
g7
(g11
S'\x06\x00\x00\x00\x00\x00\x00\x00'
p2169
tp2170
Rp2171
tp2172
atp2173
Rp2174
I0
tp2175
F1.6920137960046304e-06
s(g4
((lp2176
(g6
g7
(g11
S'\xfb\xff\xff\xff\xff\xff\xff\xff'
p2177
tp2178
Rp2179
tp2180
a(g18
g7
(g11
S'\x01\x00\x00\x00\x00\x00\x00\x00'
p2181
tp2182
Rp2183
tp2184
a(g25
I-3
tp2185
a(g23
I1
tp2186
a(g27
I0
tp2187
atp2188
Rp2189
I1
tp2190
F2.978119721563467e-12
s(g4
((lp2191
(g18
g681
tp2192
a(g23
I1
tp2193
a(g6
g7
(g11
S'\xf7\xff\xff\xff\xff\xff\xff\xff'
p2194
tp2195
Rp2196
tp2197
a(g25
I7
tp2198
a(g27
I0
tp2199
atp2200
Rp2201
I0
tp2202
F0.0
s(g4
((lp2203
(g23
I0
tp2204
a(g6
g7
(g11
S'\x03\x00\x00\x00\x00\x00\x00\x00'
p2205
tp2206
Rp2207
tp2208
a(g18
g968
tp2209
a(g25
I1
tp2210
a(g27
I0
tp2211
atp2212
Rp2213
I0
tp2214
F0.12368455386503814
s(g4
((lp2215
(g18
g2097
tp2216
a(g23
I1
tp2217
a(g6
g7
(g11
S'\xf9\xff\xff\xff\xff\xff\xff\xff'
p2218
tp2219
Rp2220
tp2221
a(g25
I-2
tp2222
a(g27
I0
tp2223
atp2224
Rp2225
I1
tp2226
F0.0
s(g4
((lp2227
(g23
I0
tp2228
a(g25
I4
tp2229
a(g18
g154
tp2230
a(g6
g7
(g11
S'\x00\x00\x00\x00\x00\x00\x00\x00'
p2231
tp2232
Rp2233
tp2234
a(g27
I0
tp2235
atp2236
Rp2237
I1
tp2238
F0.009655850887303958
s(g4
((lp2239
(g18
g767
tp2240
a(g23
I1
tp2241
a(g6
g7
(g11
S'\xff\xff\xff\xff\xff\xff\xff\xff'
p2242
tp2243
Rp2244
tp2245
a(g25
I-1
tp2246
a(g27
I0
tp2247
atp2248
Rp2249
I1
tp2250
F0.0002701563446514384
s(g4
((lp2251
(g23
I0
tp2252
a(g18
g179
tp2253
a(g6
g7
(g11
S'\x01\x00\x00\x00\x00\x00\x00\x00'
p2254
tp2255
Rp2256
tp2257
a(g25
I0
tp2258
a(g27
I0
tp2259
atp2260
Rp2261
I0
tp2262
F0.0
s(g4
((lp2263
(g23
I0
tp2264
a(g18
g1393
tp2265
a(g6
I2
tp2266
a(g25
I9
tp2267
a(g27
I0
tp2268
atp2269
Rp2270
I1
tp2271
F0.0
s(g4
((lp2272
(g23
I0
tp2273
a(g18
g7
(g11
S'\x01\x00\x00\x00\x00\x00\x00\x00'
p2274
tp2275
Rp2276
tp2277
a(g25
I7
tp2278
a(g6
g7
(g11
S'\x08\x00\x00\x00\x00\x00\x00\x00'
p2279
tp2280
Rp2281
tp2282
a(g27
I0
tp2283
atp2284
Rp2285
I1
tp2286
F0.0
s(g4
((lp2287
(g25
I4
tp2288
a(g18
g7
(g11
S'\x04\x00\x00\x00\x00\x00\x00\x00'
p2289
tp2290
Rp2291
tp2292
a(g23
I1
tp2293
a(g6
g7
(g11
S'\xfa\xff\xff\xff\xff\xff\xff\xff'
p2294
tp2295
Rp2296
tp2297
a(g27
I0
tp2298
atp2299
Rp2300
I0
tp2301
F-0.5983333333333334
s(g4
((lp2302
(g18
g1107
tp2303
a(g23
I1
tp2304
a(g6
g7
(g11
S'\xfa\xff\xff\xff\xff\xff\xff\xff'
p2305
tp2306
Rp2307
tp2308
a(g25
I7
tp2309
a(g27
I0
tp2310
atp2311
Rp2312
I1
tp2313
F0.037289570656834296
s(g4
((lp2314
(g18
g326
tp2315
a(g23
I1
tp2316
a(g25
I7
tp2317
a(g6
g7
(g11
S'\xfd\xff\xff\xff\xff\xff\xff\xff'
p2318
tp2319
Rp2320
tp2321
a(g27
I0
tp2322
atp2323
Rp2324
I0
tp2325
F-0.40211990728712926
s(g4
((lp2326
(g23
I0
tp2327
a(g18
g666
tp2328
a(g6
g7
(g11
S'\x06\x00\x00\x00\x00\x00\x00\x00'
p2329
tp2330
Rp2331
tp2332
a(g25
I7
tp2333
a(g27
I0
tp2334
atp2335
Rp2336
I0
tp2337
F2.4245754417880485e-13
s(g4
((lp2338
(g23
I0
tp2339
a(g18
g709
tp2340
a(g6
g7
(g11
S'\x02\x00\x00\x00\x00\x00\x00\x00'
p2341
tp2342
Rp2343
tp2344
a(g27
I1
tp2345
a(g25
I-2
tp2346
atp2347
Rp2348
I0
tp2349
F0.001042433162326547
s(g904
I1
tp2350
F0.0
s(g4
((lp2351
(g23
I0
tp2352
a(g18
g429
tp2353
a(g25
I6
tp2354
a(g6
g7
(g11
S'\xfc\xff\xff\xff\xff\xff\xff\xff'
p2355
tp2356
Rp2357
tp2358
a(g27
I0
tp2359
atp2360
Rp2361
I0
tp2362
F3.1689173228133355e-08
s(g4
((lp2363
(g23
I0
tp2364
a(g18
g767
tp2365
a(g6
g7
(g11
S'\xff\xff\xff\xff\xff\xff\xff\xff'
p2366
tp2367
Rp2368
tp2369
a(g25
I0
tp2370
a(g27
I0
tp2371
atp2372
Rp2373
I1
tp2374
F0.0002622930242240405
s(g4
((lp2375
(g23
I0
tp2376
a(g18
g7
(g11
S'\x04\x00\x00\x00\x00\x00\x00\x00'
p2377
tp2378
Rp2379
tp2380
a(g25
I9
tp2381
a(g6
g7
(g11
S'\x07\x00\x00\x00\x00\x00\x00\x00'
p2382
tp2383
Rp2384
tp2385
a(g27
I0
tp2386
atp2387
Rp2388
I0
tp2389
F3.3556040687169613e-06
s(g4
((lp2390
(g25
I3
tp2391
a(g18
g1107
tp2392
a(g23
I1
tp2393
a(g6
g7
(g11
S'\xff\xff\xff\xff\xff\xff\xff\xff'
p2394
tp2395
Rp2396
tp2397
a(g27
I0
tp2398
atp2399
Rp2400
I1
tp2401
F0.006505496823190784
s(g4
((lp2402
(g23
I0
tp2403
a(g18
g738
tp2404
a(g25
I7
tp2405
a(g6
g7
(g11
S'\x03\x00\x00\x00\x00\x00\x00\x00'
p2406
tp2407
Rp2408
tp2409
a(g27
I0
tp2410
atp2411
Rp2412
I0
tp2413
F1.2698300517682203e-06
s(g4
((lp2414
(g23
I0
tp2415
a(g18
g651
tp2416
a(g25
I5
tp2417
a(g6
g7
(g11
S'\x04\x00\x00\x00\x00\x00\x00\x00'
p2418
tp2419
Rp2420
tp2421
a(g27
I0
tp2422
atp2423
Rp2424
I0
tp2425
F-0.010310555555555559
s(g4
((lp2426
(g23
I0
tp2427
a(g6
g7
(g11
S'\x03\x00\x00\x00\x00\x00\x00\x00'
p2428
tp2429
Rp2430
tp2431
a(g18
g1553
tp2432
a(g27
I1
tp2433
a(g25
I4
tp2434
atp2435
Rp2436
I1
tp2437
F0.0
s(g4
((lp2438
(g23
I0
tp2439
a(g18
g7
(g11
S'\x01\x00\x00\x00\x00\x00\x00\x00'
p2440
tp2441
Rp2442
tp2443
a(g25
I-1
tp2444
a(g27
I1
tp2445
a(g6
g7
(g11
S'\x05\x00\x00\x00\x00\x00\x00\x00'
p2446
tp2447
Rp2448
tp2449
atp2450
Rp2451
I0
tp2452
F0.0
s(g4
((lp2453
(g23
I0
tp2454
a(g18
g7
(g11
S'\x01\x00\x00\x00\x00\x00\x00\x00'
p2455
tp2456
Rp2457
tp2458
a(g27
I1
tp2459
a(g25
I4
tp2460
a(g6
g7
(g11
S'\x0c\x00\x00\x00\x00\x00\x00\x00'
p2461
tp2462
Rp2463
tp2464
atp2465
Rp2466
I1
tp2467
F-0.14833333333333334
s(g4
((lp2468
(g23
I0
tp2469
a(g25
I8
tp2470
a(g18
g1928
tp2471
a(g6
g7
(g11
S'\x02\x00\x00\x00\x00\x00\x00\x00'
p2472
tp2473
Rp2474
tp2475
a(g27
I1
tp2476
atp2477
Rp2478
I0
tp2479
F0.03176348002460653
s(g4
((lp2480
(g23
I0
tp2481
a(g18
g240
tp2482
a(g6
g7
(g11
S'\x01\x00\x00\x00\x00\x00\x00\x00'
p2483
tp2484
Rp2485
tp2486
a(g25
I8
tp2487
a(g27
I0
tp2488
atp2489
Rp2490
I0
tp2491
F8.945383441857906e-07
s(g4
((lp2492
(g18
g459
tp2493
a(g25
I-3
tp2494
a(g23
I1
tp2495
a(g6
g7
(g11
S'\xff\xff\xff\xff\xff\xff\xff\xff'
p2496
tp2497
Rp2498
tp2499
a(g27
I0
tp2500
atp2501
Rp2502
I1
tp2503
F0.0
s(g4
((lp2504
(g23
I0
tp2505
a(g25
I4
tp2506
a(g18
g7
(g11
S'\x04\x00\x00\x00\x00\x00\x00\x00'
p2507
tp2508
Rp2509
tp2510
a(g6
g7
(g11
S'\x05\x00\x00\x00\x00\x00\x00\x00'
p2511
tp2512
Rp2513
tp2514
a(g27
I0
tp2515
atp2516
Rp2517
I1
tp2518
F-0.2241506606191188
s(g4
((lp2519
(g23
I0
tp2520
a(g18
g1811
tp2521
a(g25
I3
tp2522
a(g27
I1
tp2523
a(g6
g7
(g11
S'\x04\x00\x00\x00\x00\x00\x00\x00'
p2524
tp2525
Rp2526
tp2527
atp2528
Rp2529
I1
tp2530
F0.0
s(g4
((lp2531
(g23
I0
tp2532
a(g18
g2183
tp2533
a(g25
I5
tp2534
a(g6
g7
(g11
S'\xfd\xff\xff\xff\xff\xff\xff\xff'
p2535
tp2536
Rp2537
tp2538
a(g27
I0
tp2539
atp2540
Rp2541
I1
tp2542
F0.0
s(g4
((lp2543
(g23
I0
tp2544
a(g18
g2291
tp2545
a(g6
g7
(g11
S'\x00\x00\x00\x00\x00\x00\x00\x00'
p2546
tp2547
Rp2548
tp2549
a(g25
I6
tp2550
a(g27
I0
tp2551
atp2552
Rp2553
I1
tp2554
F0.0
s(g4
((lp2555
(g23
I0
tp2556
a(g18
g7
(g11
S'\x01\x00\x00\x00\x00\x00\x00\x00'
p2557
tp2558
Rp2559
tp2560
a(g25
I8
tp2561
a(g6
g7
(g11
S'\xfd\xff\xff\xff\xff\xff\xff\xff'
p2562
tp2563
Rp2564
tp2565
a(g27
I0
tp2566
atp2567
Rp2568
I0
tp2569
F1.3130258546144015e-09
s(g4
((lp2570
(g6
g7
(g11
S'\xfc\xff\xff\xff\xff\xff\xff\xff'
p2571
tp2572
Rp2573
tp2574
a(g18
g1107
tp2575
a(g23
I1
tp2576
a(g25
I8
tp2577
a(g27
I0
tp2578
atp2579
Rp2580
I1
tp2581
F0.04787076405657229
s(g4
((lp2582
(g23
I0
tp2583
a(g18
g80
tp2584
a(g6
g7
(g11
S'\xff\xff\xff\xff\xff\xff\xff\xff'
p2585
tp2586
Rp2587
tp2588
a(g25
I4
tp2589
a(g27
I0
tp2590
atp2591
Rp2592
I1
tp2593
F0.0
s(g4
((lp2594
(g23
I0
tp2595
a(g18
g681
tp2596
a(g25
I1
tp2597
a(g6
g7
(g11
S'\x00\x00\x00\x00\x00\x00\x00\x00'
p2598
tp2599
Rp2600
tp2601
a(g27
I0
tp2602
atp2603
Rp2604
I0
tp2605
F0.22100329963490142
s(g4
((lp2606
(g23
I0
tp2607
a(g18
g7
(g11
S'\x01\x00\x00\x00\x00\x00\x00\x00'
p2608
tp2609
Rp2610
tp2611
a(g27
I1
tp2612
a(g6
g7
(g11
S'\x05\x00\x00\x00\x00\x00\x00\x00'
p2613
tp2614
Rp2615
tp2616
a(g25
I4
tp2617
atp2618
Rp2619
I1
tp2620
F-0.6397923523994455
s(g4
((lp2621
(g18
g1393
tp2622
a(g23
I1
tp2623
a(g6
g7
(g11
S'\xfe\xff\xff\xff\xff\xff\xff\xff'
p2624
tp2625
Rp2626
tp2627
a(g25
I6
tp2628
a(g27
I0
tp2629
atp2630
Rp2631
I0
tp2632
F0.10924024947199705
s(g4
((lp2633
(g6
g7
(g11
S'\xfb\xff\xff\xff\xff\xff\xff\xff'
p2634
tp2635
Rp2636
tp2637
a(g18
g2097
tp2638
a(g23
I1
tp2639
a(g25
I-1
tp2640
a(g27
I0
tp2641
atp2642
Rp2643
I0
tp2644
F-0.5866666666666667
s(g4
((lp2645
(g23
I0
tp2646
a(g18
g1273
tp2647
a(g25
I-2
tp2648
a(g27
I1
tp2649
a(g6
g7
(g11
S'\x01\x00\x00\x00\x00\x00\x00\x00'
p2650
tp2651
Rp2652
tp2653
atp2654
Rp2655
I0
tp2656
F0.007178618235030207
s(g4
((lp2657
(g23
I0
tp2658
a(g25
I8
tp2659
a(g18
g7
(g11
S'\x04\x00\x00\x00\x00\x00\x00\x00'
p2660
tp2661
Rp2662
tp2663
a(g6
g7
(g11
S'\x07\x00\x00\x00\x00\x00\x00\x00'
p2664
tp2665
Rp2666
tp2667
a(g27
I0
tp2668
atp2669
Rp2670
I0
tp2671
F2.2207268980608726e-06
s(g4
((lp2672
(g23
I0
tp2673
a(g18
g224
tp2674
a(g25
I-3
tp2675
a(g6
g7
(g11
S'\x00\x00\x00\x00\x00\x00\x00\x00'
p2676
tp2677
Rp2678
tp2679
a(g27
I0
tp2680
atp2681
Rp2682
I0
tp2683
F0.028094180919221484
s(g4
((lp2684
(g18
g7
(g11
S'\x04\x00\x00\x00\x00\x00\x00\x00'
p2685
tp2686
Rp2687
tp2688
a(g23
I1
tp2689
a(g6
g7
(g11
S'\xfa\xff\xff\xff\xff\xff\xff\xff'
p2690
tp2691
Rp2692
tp2693
a(g25
I5
tp2694
a(g27
I0
tp2695
atp2696
Rp2697
I0
tp2698
F-0.011985333333333337
s(g4
((lp2699
(g23
I0
tp2700
a(g18
g459
tp2701
a(g25
I0
tp2702
a(g27
I1
tp2703
a(g6
g7
(g11
S'\x03\x00\x00\x00\x00\x00\x00\x00'
p2704
tp2705
Rp2706
tp2707
atp2708
Rp2709
I0
tp2710
F3.96369874647858e-17
s(g4
((lp2711
(g23
I0
tp2712
a(g25
I4
tp2713
a(g18
g7
(g11
S'\x04\x00\x00\x00\x00\x00\x00\x00'
p2714
tp2715
Rp2716
tp2717
a(g6
g7
(g11
S'\xf7\xff\xff\xff\xff\xff\xff\xff'
p2718
tp2719
Rp2720
tp2721
a(g27
I0
tp2722
atp2723
Rp2724
I1
tp2725
F0.0
s(g4
((lp2726
(g23
I0
tp2727
a(g18
g543
tp2728
a(g25
I0
tp2729
a(g27
I1
tp2730
a(g6
g7
(g11
S'\x00\x00\x00\x00\x00\x00\x00\x00'
p2731
tp2732
Rp2733
tp2734
atp2735
Rp2736
I1
tp2737
F0.0
s(g4
((lp2738
(g23
I0
tp2739
a(g18
g429
tp2740
a(g27
I1
tp2741
a(g25
I7
tp2742
a(g6
g7
(g11
S'\x06\x00\x00\x00\x00\x00\x00\x00'
p2743
tp2744
Rp2745
tp2746
atp2747
Rp2748
I0
tp2749
F-0.3866666666666666
s(g4
((lp2750
(g23
I0
tp2751
a(g25
I0
tp2752
a(g18
g815
tp2753
a(g6
g7
(g11
S'\x02\x00\x00\x00\x00\x00\x00\x00'
p2754
tp2755
Rp2756
tp2757
a(g27
I1
tp2758
atp2759
Rp2760
I1
tp2761
F0.0
s(g4
((lp2762
(g23
I0
tp2763
a(g18
g1014
tp2764
a(g6
g7
(g11
S'\xff\xff\xff\xff\xff\xff\xff\xff'
p2765
tp2766
Rp2767
tp2768
a(g25
I-1
tp2769
a(g27
I0
tp2770
atp2771
Rp2772
I1
tp2773
F2.9037244691524875e-07
s(g4
((lp2774
(g23
I0
tp2775
a(g25
I4
tp2776
a(g18
g7
(g11
S'\x04\x00\x00\x00\x00\x00\x00\x00'
p2777
tp2778
Rp2779
tp2780
a(g27
I1
tp2781
a(g6
g7
(g11
S'\x06\x00\x00\x00\x00\x00\x00\x00'
p2782
tp2783
Rp2784
tp2785
atp2786
Rp2787
I0
tp2788
F-0.7584105391129838
s(g4
((lp2789
(g23
I0
tp2790
a(g18
g21
tp2791
a(g25
I9
tp2792
a(g6
I3
tp2793
a(g27
I0
tp2794
atp2795
Rp2796
I0
tp2797
F1.4366485502586803e-08
s(g4
((lp2798
(g18
g681
tp2799
a(g23
I1
tp2800
a(g6
g7
(g11
S'\xfa\xff\xff\xff\xff\xff\xff\xff'
p2801
tp2802
Rp2803
tp2804
a(g25
I8
tp2805
a(g27
I0
tp2806
atp2807
Rp2808
I1
tp2809
F0.0
s(g4
((lp2810
(g23
I0
tp2811
a(g18
g883
tp2812
a(g27
I1
tp2813
a(g6
g7
(g11
S'\x00\x00\x00\x00\x00\x00\x00\x00'
p2814
tp2815
Rp2816
tp2817
a(g25
I4
tp2818
atp2819
Rp2820
I1
tp2821
F0.0
s(g4
((lp2822
(g18
g51
tp2823
a(g23
I1
tp2824
a(g6
g7
(g11
S'\xf7\xff\xff\xff\xff\xff\xff\xff'
p2825
tp2826
Rp2827
tp2828
a(g25
I6
tp2829
a(g27
I0
tp2830
atp2831
Rp2832
I0
tp2833
F-0.4283333333333334
s(g135
I0
tp2834
F5.313366657260502e-06
s(g4
((lp2835
(g23
I0
tp2836
a(g18
g297
tp2837
a(g25
I-3
tp2838
a(g6
g7
(g11
S'\xfc\xff\xff\xff\xff\xff\xff\xff'
p2839
tp2840
Rp2841
tp2842
a(g27
I0
tp2843
atp2844
Rp2845
I1
tp2846
F0.0
s(g4
((lp2847
(g18
g2559
tp2848
a(g23
I1
tp2849
a(g25
I8
tp2850
a(g6
g7
(g11
S'\xfd\xff\xff\xff\xff\xff\xff\xff'
p2851
tp2852
Rp2853
tp2854
a(g27
I0
tp2855
atp2856
Rp2857
I1
tp2858
F0.0
s(g4
((lp2859
(g18
g357
tp2860
a(g25
I-3
tp2861
a(g23
I1
tp2862
a(g6
g7
(g11
S'\xfa\xff\xff\xff\xff\xff\xff\xff'
p2863
tp2864
Rp2865
tp2866
a(g27
I0
tp2867
atp2868
Rp2869
I1
tp2870
F0.0
s(g30
I0
tp2871
F0.0
s(g60
I1
tp2872
F0.03673496300535567
s(g4
((lp2873
(g23
I0
tp2874
a(g18
g40
tp2875
a(g27
I1
tp2876
a(g6
g7
(g11
S'\x01\x00\x00\x00\x00\x00\x00\x00'
p2877
tp2878
Rp2879
tp2880
a(g25
I7
tp2881
atp2882
Rp2883
I1
tp2884
F0.0
s(g105
I1
tp2885
F0.000421779914308546
s(g4
((lp2886
(g23
I0
tp2887
a(g25
I4
tp2888
a(g18
g254
tp2889
a(g6
g7
(g11
S'\xff\xff\xff\xff\xff\xff\xff\xff'
p2890
tp2891
Rp2892
tp2893
a(g27
I0
tp2894
atp2895
Rp2896
I0
tp2897
F0.2626258212972142
s(g396
I0
tp2898
F8.386550544930232e-07
s(g4
((lp2899
(g18
g7
(g11
S'\x04\x00\x00\x00\x00\x00\x00\x00'
p2900
tp2901
Rp2902
tp2903
a(g23
I1
tp2904
a(g25
I8
tp2905
a(g6
g7
(g11
S'\xf8\xff\xff\xff\xff\xff\xff\xff'
p2906
tp2907
Rp2908
tp2909
a(g27
I0
tp2910
atp2911
Rp2912
I0
tp2913
F-0.5483333333333333
s(g4
((lp2914
(g23
I0
tp2915
a(g18
g254
tp2916
a(g27
I1
tp2917
a(g6
g7
(g11
S'\x00\x00\x00\x00\x00\x00\x00\x00'
p2918
tp2919
Rp2920
tp2921
a(g25
I2
tp2922
atp2923
Rp2924
I1
tp2925
F0.0486559964570953
s(g189
I1
tp2926
F0.0
s(g423
I0
tp2927
F-1.3861724472567546e-06
s(g4
((lp2928
(g23
I0
tp2929
a(g18
g2276
tp2930
a(g27
I1
tp2931
a(g6
g7
(g11
S'\x08\x00\x00\x00\x00\x00\x00\x00'
p2932
tp2933
Rp2934
tp2935
a(g25
I9
tp2936
atp2937
Rp2938
I1
tp2939
F0.0
s(g4
((lp2940
(g23
I0
tp2941
a(g18
g444
tp2942
a(g25
I-1
tp2943
a(g6
g7
(g11
S'\x02\x00\x00\x00\x00\x00\x00\x00'
p2944
tp2945
Rp2946
tp2947
a(g27
I0
tp2948
atp2949
Rp2950
I1
tp2951
F0.0
s(g1117
I0
tp2952
F0.018122539266776955
s(g4
((lp2953
(g23
I0
tp2954
a(g18
g582
tp2955
a(g6
g7
(g11
S'\x02\x00\x00\x00\x00\x00\x00\x00'
p2956
tp2957
Rp2958
tp2959
a(g25
I6
tp2960
a(g27
I0
tp2961
atp2962
Rp2963
I0
tp2964
F0.0983320874242372
s(g4
((lp2965
(g18
g7
(g11
S'\x01\x00\x00\x00\x00\x00\x00\x00'
p2966
tp2967
Rp2968
tp2969
a(g23
I1
tp2970
a(g6
g7
(g11
S'\xfc\xff\xff\xff\xff\xff\xff\xff'
p2971
tp2972
Rp2973
tp2974
a(g25
I7
tp2975
a(g27
I0
tp2976
atp2977
Rp2978
I1
tp2979
F0.0
s(g306
I0
tp2980
F0.0
s(g2373
I0
tp2981
F0.007322959507133095
s(g4
((lp2982
(g23
I0
tp2983
a(g18
g681
tp2984
a(g6
g7
(g11
S'\x01\x00\x00\x00\x00\x00\x00\x00'
p2985
tp2986
Rp2987
tp2988
a(g27
I1
tp2989
a(g25
I-1
tp2990
atp2991
Rp2992
I1
tp2993
F0.0
s(g4
((lp2994
(g18
g21
tp2995
a(g23
I1
tp2996
a(g6
g7
(g11
S'\xff\xff\xff\xff\xff\xff\xff\xff'
p2997
tp2998
Rp2999
tp3000
a(g25
I3
tp3001
a(g27
I0
tp3002
atp3003
Rp3004
I1
tp3005
F0.0
s(g336
I1
tp3006
F-0.0005131227091642336
s(g4
((lp3007
(g18
g651
tp3008
a(g23
I1
tp3009
a(g25
I0
tp3010
a(g6
g7
(g11
S'\xfd\xff\xff\xff\xff\xff\xff\xff'
p3011
tp3012
Rp3013
tp3014
a(g27
I0
tp3015
atp3016
Rp3017
I1
tp3018
F0.0
s(g351
I0
tp3019
F-0.0004903328931585937
s(g366
I1
tp3020
F0.0
s(g1820
I1
tp3021
F0.0
s(g4
((lp3022
(g23
I0
tp3023
a(g18
g857
tp3024
a(g6
g7
(g11
S'\xf6\xff\xff\xff\xff\xff\xff\xff'
p3025
tp3026
Rp3027
tp3028
a(g25
I9
tp3029
a(g27
I0
tp3030
atp3031
Rp3032
I1
tp3033
F0.0
s(g4
((lp3034
(g18
g651
tp3035
a(g25
I1
tp3036
a(g23
I1
tp3037
a(g6
g7
(g11
S'\xfe\xff\xff\xff\xff\xff\xff\xff'
p3038
tp3039
Rp3040
tp3041
a(g27
I0
tp3042
atp3043
Rp3044
I1
tp3045
F0.029500000000000064
s(g4
((lp3046
(g23
I0
tp3047
a(g18
g815
tp3048
a(g6
g7
(g11
S'\x02\x00\x00\x00\x00\x00\x00\x00'
p3049
tp3050
Rp3051
tp3052
a(g25
I-1
tp3053
a(g27
I0
tp3054
atp3055
Rp3056
I0
tp3057
F0.006464839894590737
s(g4
((lp3058
(g23
I0
tp3059
a(g18
g357
tp3060
a(g25
I7
tp3061
a(g6
g7
(g11
S'\xfd\xff\xff\xff\xff\xff\xff\xff'
p3062
tp3063
Rp3064
tp3065
a(g27
I0
tp3066
atp3067
Rp3068
I1
tp3069
F0.0
s(g4
((lp3070
(g23
I0
tp3071
a(g18
g543
tp3072
a(g25
I4
tp3073
a(g6
g7
(g11
S'\xfd\xff\xff\xff\xff\xff\xff\xff'
p3074
tp3075
Rp3076
tp3077
a(g27
I0
tp3078
atp3079
Rp3080
I0
tp3081
F0.0012059789263581806
s(g4
((lp3082
(g23
I0
tp3083
a(g18
g597
tp3084
a(g25
I5
tp3085
a(g27
I1
tp3086
a(g6
g7
(g11
S'\x06\x00\x00\x00\x00\x00\x00\x00'
p3087
tp3088
Rp3089
tp3090
atp3091
Rp3092
I1
tp3093
F-0.340244191401904
s(g4
((lp3094
(g23
I0
tp3095
a(g18
g2457
tp3096
a(g25
I6
tp3097
a(g27
I1
tp3098
a(g6
g7
(g11
S'\x0b\x00\x00\x00\x00\x00\x00\x00'
p3099
tp3100
Rp3101
tp3102
atp3103
Rp3104
I1
tp3105
F0.0
s(g510
I0
tp3106
F0.0
s(g4
((lp3107
(g23
I0
tp3108
a(g18
g1041
tp3109
a(g6
g7
(g11
S'\xf7\xff\xff\xff\xff\xff\xff\xff'
p3110
tp3111
Rp3112
tp3113
a(g25
I4
tp3114
a(g27
I0
tp3115
atp3116
Rp3117
I0
tp3118
F-0.18666666666666668
s(g522
I1
tp3119
F0.0
s(g835
I0
tp3120
F6.798397300313057e-05
s(g576
I1
tp3121
F0.0720626128915746
s(g3117
I1
tp3122
F0.0
s(g618
I1
tp3123
F0.00579090642798592
s(g4
((lp3124
(g23
I0
tp3125
a(g18
g738
tp3126
a(g6
g7
(g11
S'\x01\x00\x00\x00\x00\x00\x00\x00'
p3127
tp3128
Rp3129
tp3130
a(g25
I4
tp3131
a(g27
I0
tp3132
atp3133
Rp3134
I0
tp3135
F0.002211870250739044
s(g660
I0
tp3136
F-5.810421249023358e-05
s(g4
((lp3137
(g23
I0
tp3138
a(g18
g444
tp3139
a(g6
g7
(g11
S'\n\x00\x00\x00\x00\x00\x00\x00'
p3140
tp3141
Rp3142
tp3143
a(g25
I8
tp3144
a(g27
I0
tp3145
atp3146
Rp3147
I1
tp3148
F0.0
s(g4
((lp3149
(g23
I0
tp3150
a(g18
g21
tp3151
a(g25
I6
tp3152
a(g6
g7
(g11
S'\x02\x00\x00\x00\x00\x00\x00\x00'
p3153
tp3154
Rp3155
tp3156
a(g27
I0
tp3157
atp3158
Rp3159
I1
tp3160
F0.0
s(g4
((lp3161
(g23
I0
tp3162
a(g18
g2276
tp3163
a(g25
I5
tp3164
a(g27
I1
tp3165
a(g6
g7
(g11
S'\x08\x00\x00\x00\x00\x00\x00\x00'
p3166
tp3167
Rp3168
tp3169
atp3170
Rp3171
I1
tp3172
F-0.03805560392157441
s(g4
((lp3173
(g23
I0
tp3174
a(g18
g2559
tp3175
a(g25
I-1
tp3176
a(g6
g7
(g11
S'\xff\xff\xff\xff\xff\xff\xff\xff'
p3177
tp3178
Rp3179
tp3180
a(g27
I0
tp3181
atp3182
Rp3183
I0
tp3184
F1.2159185696184534e-13
s(g931
I1
tp3185
F0.0
s(g702
I0
tp3186
F0.0
s(g4
((lp3187
(g23
I0
tp3188
a(g18
g2559
tp3189
a(g25
I1
tp3190
a(g6
g7
(g11
S'\xfd\xff\xff\xff\xff\xff\xff\xff'
p3191
tp3192
Rp3193
tp3194
a(g27
I0
tp3195
atp3196
Rp3197
I1
tp3198
F0.0
s(g4
((lp3199
(g18
g224
tp3200
a(g23
I1
tp3201
a(g25
I8
tp3202
a(g6
g7
(g11
S'\xf9\xff\xff\xff\xff\xff\xff\xff'
p3203
tp3204
Rp3205
tp3206
a(g27
I0
tp3207
atp3208
Rp3209
I1
tp3210
F0.023981883715761237
s(g762
I0
tp3211
F0.005766260818519992
s(g4
((lp3212
(g18
g357
tp3213
a(g25
I-1
tp3214
a(g23
I1
tp3215
a(g6
g7
(g11
S'\xfd\xff\xff\xff\xff\xff\xff\xff'
p3216
tp3217
Rp3218
tp3219
a(g27
I0
tp3220
atp3221
Rp3222
I0
tp3223
F0.0
s(g4
((lp3224
(g23
I0
tp3225
a(g18
g459
tp3226
a(g25
I5
tp3227
a(g6
g7
(g11
S'\x07\x00\x00\x00\x00\x00\x00\x00'
p3228
tp3229
Rp3230
tp3231
a(g27
I0
tp3232
atp3233
Rp3234
I1
tp3235
F-0.0003952845977600001
s(g820
I1
tp3236
F0.0
s(g4
((lp3237
(g18
g767
tp3238
a(g23
I1
tp3239
a(g25
I9
tp3240
a(g6
g7
(g11
S'\xfd\xff\xff\xff\xff\xff\xff\xff'
p3241
tp3242
Rp3243
tp3244
a(g27
I0
tp3245
atp3246
Rp3247
I1
tp3248
F0.039515576473554
s(g4
((lp3249
(g23
I0
tp3250
a(g18
g7
(g11
S'\x01\x00\x00\x00\x00\x00\x00\x00'
p3251
tp3252
Rp3253
tp3254
a(g25
I-1
tp3255
a(g6
g7
(g11
S'\xfc\xff\xff\xff\xff\xff\xff\xff'
p3256
tp3257
Rp3258
tp3259
a(g27
I0
tp3260
atp3261
Rp3262
I1
tp3263
F0.0
s(g847
I0
tp3264
F-9.330157803572766e-07
s(g877
I0
tp3265
F-0.16666666666666666
s(g4
((lp3266
(g23
I0
tp3267
a(g18
g459
tp3268
a(g25
I6
tp3269
a(g6
g7
(g11
S'\x07\x00\x00\x00\x00\x00\x00\x00'
p3270
tp3271
Rp3272
tp3273
a(g27
I0
tp3274
atp3275
Rp3276
I0
tp3277
F-3.926497792000001e-06
s(g1090
I0
tp3278
F1.438552509454685e-15
s(g4
((lp3279
(g23
I0
tp3280
a(g18
g2183
tp3281
a(g25
I9
tp3282
a(g27
I1
tp3283
a(g6
g7
(g11
S'\x03\x00\x00\x00\x00\x00\x00\x00'
p3284
tp3285
Rp3286
tp3287
atp3288
Rp3289
I0
tp3290
F-3.911582170797798e-10
s(g4
((lp3291
(g23
I0
tp3292
a(g18
g543
tp3293
a(g25
I-2
tp3294
a(g27
I1
tp3295
a(g6
g7
(g11
S'\x00\x00\x00\x00\x00\x00\x00\x00'
p3296
tp3297
Rp3298
tp3299
atp3300
Rp3301
I1
tp3302
F0.0
s(g4
((lp3303
(g23
I0
tp3304
a(g18
g179
tp3305
a(g6
g7
(g11
S'\x02\x00\x00\x00\x00\x00\x00\x00'
p3306
tp3307
Rp3308
tp3309
a(g25
I2
tp3310
a(g27
I0
tp3311
atp3312
Rp3313
I1
tp3314
F0.0
s(g916
I0
tp3315
F-0.12969814715247469
s(g958
I1
tp3316
F0.0
s(g4
((lp3317
(g6
g7
(g11
S'\xfb\xff\xff\xff\xff\xff\xff\xff'
p3318
tp3319
Rp3320
tp3321
a(g18
g214
tp3322
a(g23
I1
tp3323
a(g25
I-2
tp3324
a(g27
I0
tp3325
atp3326
Rp3327
I0
tp3328
F-0.42666666666666675
s(g1009
I0
tp3329
F7.508520055983982e-14
s(g4
((lp3330
(g25
I1
tp3331
a(g6
g7
(g11
S'\xfc\xff\xff\xff\xff\xff\xff\xff'
p3332
tp3333
Rp3334
tp3335
a(g18
g1513
tp3336
a(g23
I1
tp3337
a(g27
I0
tp3338
atp3339
Rp3340
I0
tp3341
F-0.2858333333333334
s(g4
((lp3342
(g23
I0
tp3343
a(g18
g7
(g11
S'\x01\x00\x00\x00\x00\x00\x00\x00'
p3344
tp3345
Rp3346
tp3347
a(g25
I9
tp3348
a(g6
I2
tp3349
a(g27
I0
tp3350
atp3351
Rp3352
I0
tp3353
F7.078670483805733e-08
s(g4
((lp3354
(g23
I0
tp3355
a(g25
I3
tp3356
a(g18
g7
(g11
S'\x04\x00\x00\x00\x00\x00\x00\x00'
p3357
tp3358
Rp3359
tp3360
a(g6
g7
(g11
S'\x02\x00\x00\x00\x00\x00\x00\x00'
p3361
tp3362
Rp3363
tp3364
a(g27
I0
tp3365
atp3366
Rp3367
I1
tp3368
F2.3505226107660857e-07
s(g4
((lp3369
(g23
I0
tp3370
a(g6
g7
(g11
S'\xfb\xff\xff\xff\xff\xff\xff\xff'
p3371
tp3372
Rp3373
tp3374
a(g18
g214
tp3375
a(g25
I8
tp3376
a(g27
I0
tp3377
atp3378
Rp3379
I1
tp3380
F0.0005477981987413847
s(g1036
I1
tp3381
F0.0
s(g4
((lp3382
(g18
g297
tp3383
a(g23
I1
tp3384
a(g25
I0
tp3385
a(g6
g7
(g11
S'\xfc\xff\xff\xff\xff\xff\xff\xff'
p3386
tp3387
Rp3388
tp3389
a(g27
I0
tp3390
atp3391
Rp3392
I0
tp3393
F1.1840146156614594e-20
s(g453
I1
tp3394
F0.0
s(g1078
I0
tp3395
F0.006205093064857296
s(g1267
I0
tp3396
F8.076037886096623e-06
s(g1102
I0
tp3397
F-0.516580308853183
s(g4
((lp3398
(g23
I0
tp3399
a(g18
g651
tp3400
a(g25
I5
tp3401
a(g6
g7
(g11
S'\x03\x00\x00\x00\x00\x00\x00\x00'
p3402
tp3403
Rp3404
tp3405
a(g27
I0
tp3406
atp3407
Rp3408
I0
tp3409
F7.286546507420717e-05
s(g4
((lp3410
(g25
I4
tp3411
a(g18
g80
tp3412
a(g23
I1
tp3413
a(g6
g7
(g11
S'\xf5\xff\xff\xff\xff\xff\xff\xff'
p3414
tp3415
Rp3416
tp3417
a(g27
I0
tp3418
atp3419
Rp3420
I1
tp3421
F0.0
s(g862
I0
tp3422
F0.0001002632445905905
s(g4
((lp3423
(g18
g1273
tp3424
a(g23
I1
tp3425
a(g6
g7
(g11
S'\xfa\xff\xff\xff\xff\xff\xff\xff'
p3426
tp3427
Rp3428
tp3429
a(g25
I-3
tp3430
a(g27
I0
tp3431
atp3432
Rp3433
I0
tp3434
F-0.43166666666666675
s(g4
((lp3435
(g18
g2559
tp3436
a(g23
I1
tp3437
a(g6
g7
(g11
S'\xfc\xff\xff\xff\xff\xff\xff\xff'
p3438
tp3439
Rp3440
tp3441
a(g25
I5
tp3442
a(g27
I0
tp3443
atp3444
Rp3445
I1
tp3446
F3.0227605725725047e-06
s(g4
((lp3447
(g23
I0
tp3448
a(g18
g681
tp3449
a(g27
I1
tp3450
a(g6
g7
(g11
S'\x00\x00\x00\x00\x00\x00\x00\x00'
p3451
tp3452
Rp3453
tp3454
a(g25
I9
tp3455
atp3456
Rp3457
I1
tp3458
F0.0
s(g1168
I0
tp3459
F0.047361812149612784
s(g1204
I0
tp3460
F4.399168543175907e-10
s(g1219
I0
tp3461
F0.0
s(g4
((lp3462
(g23
I0
tp3463
a(g18
g1877
tp3464
a(g25
I8
tp3465
a(g6
g7
(g11
S'\xf9\xff\xff\xff\xff\xff\xff\xff'
p3466
tp3467
Rp3468
tp3469
a(g27
I0
tp3470
atp3471
Rp3472
I1
tp3473
F0.0007729000239869865
s(g4
((lp3474
(g23
I0
tp3475
a(g18
g474
tp3476
a(g6
g7
(g11
S'\x07\x00\x00\x00\x00\x00\x00\x00'
p3477
tp3478
Rp3479
tp3480
a(g27
I1
tp3481
a(g25
I9
tp3482
atp3483
Rp3484
I0
tp3485
F2.6246591001471676e-18
s(g1246
I1
tp3486
F0.0
s(g4
((lp3487
(g18
g326
tp3488
a(g23
I1
tp3489
a(g6
g7
(g11
S'\xfa\xff\xff\xff\xff\xff\xff\xff'
p3490
tp3491
Rp3492
tp3493
a(g25
I6
tp3494
a(g27
I0
tp3495
atp3496
Rp3497
I1
tp3498
F-0.000593872101648969
s(g1255
I0
tp3499
F0.03695185110875138
s(g4
((lp3500
(g18
g326
tp3501
a(g23
I1
tp3502
a(g25
I8
tp3503
a(g6
g7
(g11
S'\xfe\xff\xff\xff\xff\xff\xff\xff'
p3504
tp3505
Rp3506
tp3507
a(g27
I0
tp3508
atp3509
Rp3510
I0
tp3511
F0.051250680178837806
s(g1306
I0
tp3512
F5.993465875310419e-06
s(g3209
I0
tp3513
F-0.44333333333333336
s(g1321
I0
tp3514
F0.004679540633901129
s(g4
((lp3515
(g25
I4
tp3516
a(g18
g7
(g11
S'\x01\x00\x00\x00\x00\x00\x00\x00'
p3517
tp3518
Rp3519
tp3520
a(g23
I1
tp3521
a(g6
g7
(g11
S'\xfe\xff\xff\xff\xff\xff\xff\xff'
p3522
tp3523
Rp3524
tp3525
a(g27
I0
tp3526
atp3527
Rp3528
I1
tp3529
F0.0
s(g1558
I1
tp3530
F-0.19429066451363253
s(g1345
I1
tp3531
F0.0
s(g1372
I0
tp3532
F0.0
s(g1414
I0
tp3533
F0.0007249258162660816
s(g1444
I1
tp3534
F0.0
s(g2772
I0
tp3535
F0.01001780316003983
s(g2820
I0
tp3536
F7.472540132531188e-05
s(g3222
I1
tp3537
F0.0
s(g4
((lp3538
(g18
g21
tp3539
a(g23
I1
tp3540
a(g6
g7
(g11
S'\xff\xff\xff\xff\xff\xff\xff\xff'
p3541
tp3542
Rp3543
tp3544
a(g25
I2
tp3545
a(g27
I0
tp3546
atp3547
Rp3548
I0
tp3549
F0.12177202692996883
s(g1519
I0
tp3550
F-0.26583333333333337
s(g4
((lp3551
(g23
I0
tp3552
a(g18
g7
(g11
S'\x04\x00\x00\x00\x00\x00\x00\x00'
p3553
tp3554
Rp3555
tp3556
a(g27
I1
tp3557
a(g6
g7
(g11
S'\x00\x00\x00\x00\x00\x00\x00\x00'
p3558
tp3559
Rp3560
tp3561
a(g25
I1
tp3562
atp3563
Rp3564
I0
tp3565
F0.7264993645085662
s(g4
((lp3566
(g23
I0
tp3567
a(g6
g7
(g11
S'\xfb\xff\xff\xff\xff\xff\xff\xff'
p3568
tp3569
Rp3570
tp3571
a(g18
g7
(g11
S'\x04\x00\x00\x00\x00\x00\x00\x00'
p3572
tp3573
Rp3574
tp3575
a(g25
I4
tp3576
a(g27
I0
tp3577
atp3578
Rp3579
I1
tp3580
F-0.6735784294754102
s(g1531
I1
tp3581
F0.0
s(g4
((lp3582
(g23
I0
tp3583
a(g6
g7
(g11
S'\xfb\xff\xff\xff\xff\xff\xff\xff'
p3584
tp3585
Rp3586
tp3587
a(g18
g767
tp3588
a(g25
I7
tp3589
a(g27
I0
tp3590
atp3591
Rp3592
I0
tp3593
F0.062426676909683974
s(g1543
I0
tp3594
F0.0001334445269190005
s(g4
((lp3595
(g23
I0
tp3596
a(g18
g597
tp3597
a(g25
I9
tp3598
a(g6
g7
(g11
S'\xfe\xff\xff\xff\xff\xff\xff\xff'
p3599
tp3600
Rp3601
tp3602
a(g27
I0
tp3603
atp3604
Rp3605
I1
tp3606
F0.0
s(g4
((lp3607
(g6
g7
(g11
S'\xfc\xff\xff\xff\xff\xff\xff\xff'
p3608
tp3609
Rp3610
tp3611
a(g18
g2291
tp3612
a(g23
I1
tp3613
a(g25
I5
tp3614
a(g27
I0
tp3615
atp3616
Rp3617
I0
tp3618
F-0.01353166666666667
s(g3497
I0
tp3619
F-0.535
s(g4
((lp3620
(g23
I0
tp3621
a(g18
g815
tp3622
a(g6
g7
(g11
S'\x02\x00\x00\x00\x00\x00\x00\x00'
p3623
tp3624
Rp3625
tp3626
a(g25
I5
tp3627
a(g27
I0
tp3628
atp3629
Rp3630
I1
tp3631
F0.0
s(g1594
I1
tp3632
F0.0
s(g1606
I1
tp3633
F0.0
s(g1618
I1
tp3634
F0.0
s(g4
((lp3635
(g23
I0
tp3636
a(g18
g767
tp3637
a(g6
g7
(g11
S'\xfe\xff\xff\xff\xff\xff\xff\xff'
p3638
tp3639
Rp3640
tp3641
a(g25
I9
tp3642
a(g27
I0
tp3643
atp3644
Rp3645
I0
tp3646
F0.03895916843148512
s(g4
((lp3647
(g23
I0
tp3648
a(g18
g224
tp3649
a(g25
I-2
tp3650
a(g6
g7
(g11
S'\xfd\xff\xff\xff\xff\xff\xff\xff'
p3651
tp3652
Rp3653
tp3654
a(g27
I0
tp3655
atp3656
Rp3657
I0
tp3658
F0.019114291294873225
s(g1654
I1
tp3659
F0.008336464222370384
s(g1669
I0
tp3660
F2.1489779770830263e-06
s(g4
((lp3661
(g23
I0
tp3662
a(g18
g738
tp3663
a(g6
g7
(g11
S'\x01\x00\x00\x00\x00\x00\x00\x00'
p3664
tp3665
Rp3666
tp3667
a(g27
I1
tp3668
a(g25
I3
tp3669
atp3670
Rp3671
I0
tp3672
F0.0005780900659293523
s(g4
((lp3673
(g23
I0
tp3674
a(g6
g7
(g11
S'\xfc\xff\xff\xff\xff\xff\xff\xff'
p3675
tp3676
Rp3677
tp3678
a(g18
g1513
tp3679
a(g25
I3
tp3680
a(g27
I0
tp3681
atp3682
Rp3683
I0
tp3684
F0.006601407799553513
s(g1751
I1
tp3685
F0.0
s(g4
((lp3686
(g23
I0
tp3687
a(g18
g51
tp3688
a(g6
g7
(g11
S'\xfe\xff\xff\xff\xff\xff\xff\xff'
p3689
tp3690
Rp3691
tp3692
a(g25
I8
tp3693
a(g27
I0
tp3694
atp3695
Rp3696
I1
tp3697
F0.002953304639963391
s(g4
((lp3698
(g23
I0
tp3699
a(g25
I4
tp3700
a(g18
g582
tp3701
a(g6
g7
(g11
S'\xfd\xff\xff\xff\xff\xff\xff\xff'
p3702
tp3703
Rp3704
tp3705
a(g27
I0
tp3706
atp3707
Rp3708
I1
tp3709
F0.0
s(g4
((lp3710
(g25
I1
tp3711
a(g18
g326
tp3712
a(g23
I1
tp3713
a(g6
g7
(g11
S'\xff\xff\xff\xff\xff\xff\xff\xff'
p3714
tp3715
Rp3716
tp3717
a(g27
I0
tp3718
atp3719
Rp3720
I0
tp3721
F0.8238661169459035
s(g1790
I1
tp3722
F0.24104965259415406
s(g4
((lp3723
(g18
g681
tp3724
a(g25
I-2
tp3725
a(g23
I1
tp3726
a(g6
g7
(g11
S'\xfe\xff\xff\xff\xff\xff\xff\xff'
p3727
tp3728
Rp3729
tp3730
a(g27
I0
tp3731
atp3732
Rp3733
I0
tp3734
F5.0451450031440266e-14
s(g4
((lp3735
(g23
I0
tp3736
a(g18
g651
tp3737
a(g25
I8
tp3738
a(g6
g7
(g11
S'\x05\x00\x00\x00\x00\x00\x00\x00'
p3739
tp3740
Rp3741
tp3742
a(g27
I0
tp3743
atp3744
Rp3745
I0
tp3746
F-1.5793770333090798e-08
s(g1832
I0
tp3747
F2.1424169567661025e-13
s(g4
((lp3748
(g23
I0
tp3749
a(g18
g240
tp3750
a(g6
g7
(g11
S'\t\x00\x00\x00\x00\x00\x00\x00'
p3751
tp3752
Rp3753
tp3754
a(g25
I5
tp3755
a(g27
I0
tp3756
atp3757
Rp3758
I1
tp3759
F0.0
s(g1847
I0
tp3760
F4.9317561860056464e-08
s(g1871
I0
tp3761
F-0.4
s(g4
((lp3762
(g18
g21
tp3763
a(g25
I1
tp3764
a(g23
I1
tp3765
a(g6
g7
(g11
S'\xfd\xff\xff\xff\xff\xff\xff\xff'
p3766
tp3767
Rp3768
tp3769
a(g27
I0
tp3770
atp3771
Rp3772
I0
tp3773
F-0.21866191236031113
s(g4
((lp3774
(g23
I0
tp3775
a(g18
g1984
tp3776
a(g25
I5
tp3777
a(g27
I1
tp3778
a(g6
g7
(g11
S'\x00\x00\x00\x00\x00\x00\x00\x00'
p3779
tp3780
Rp3781
tp3782
atp3783
Rp3784
I1
tp3785
F0.0
s(g1898
I1
tp3786
F0.03883914502834606
s(g4
((lp3787
(g23
I0
tp3788
a(g6
g7
(g11
S'\x03\x00\x00\x00\x00\x00\x00\x00'
p3789
tp3790
Rp3791
tp3792
a(g18
g872
tp3793
a(g25
I2
tp3794
a(g27
I0
tp3795
atp3796
Rp3797
I1
tp3798
F0.0
s(g1910
I0
tp3799
F-0.027889251605948635
s(g1922
I1
tp3800
F0.0
s(g4
((lp3801
(g23
I0
tp3802
a(g18
g130
tp3803
a(g6
g7
(g11
S'\x06\x00\x00\x00\x00\x00\x00\x00'
p3804
tp3805
Rp3806
tp3807
a(g25
I7
tp3808
a(g27
I0
tp3809
atp3810
Rp3811
I1
tp3812
F0.0
s(g4
((lp3813
(g23
I0
tp3814
a(g18
g1014
tp3815
a(g25
I-2
tp3816
a(g6
g7
(g11
S'\x00\x00\x00\x00\x00\x00\x00\x00'
p3817
tp3818
Rp3819
tp3820
a(g27
I0
tp3821
atp3822
Rp3823
I1
tp3824
F6.586839510982335e-05
s(g4
((lp3825
(g25
I4
tp3826
a(g6
g7
(g11
S'\xfc\xff\xff\xff\xff\xff\xff\xff'
p3827
tp3828
Rp3829
tp3830
a(g18
g7
(g11
S'\x04\x00\x00\x00\x00\x00\x00\x00'
p3831
tp3832
Rp3833
tp3834
a(g23
I1
tp3835
a(g27
I0
tp3836
atp3837
Rp3838
I1
tp3839
F0.2152400898300554
s(g1967
I1
tp3840
F0.0
s(g4
((lp3841
(g23
I0
tp3842
a(g18
g297
tp3843
a(g6
g7
(g11
S'\xfb\xff\xff\xff\xff\xff\xff\xff'
p3844
tp3845
Rp3846
tp3847
a(g25
I5
tp3848
a(g27
I0
tp3849
atp3850
Rp3851
I1
tp3852
F0.0
s(g2018
I0
tp3853
F4.770448664367176e-11
s(g4
((lp3854
(g23
I0
tp3855
a(g18
g3359
tp3856
a(g6
g7
(g11
S'\x02\x00\x00\x00\x00\x00\x00\x00'
p3857
tp3858
Rp3859
tp3860
a(g25
I2
tp3861
a(g27
I0
tp3862
atp3863
Rp3864
I0
tp3865
F0.34938403723569605
s(g4
((lp3866
(g23
I0
tp3867
a(g18
g179
tp3868
a(g6
g7
(g11
S'\x02\x00\x00\x00\x00\x00\x00\x00'
p3869
tp3870
Rp3871
tp3872
a(g27
I1
tp3873
a(g25
I9
tp3874
atp3875
Rp3876
I1
tp3877
F0.0
s(g2030
I1
tp3878
F0.0004895368704164923
s(g2042
I1
tp3879
F-0.41477066666666673
s(g2054
I1
tp3880
F0.0
s(g4
((lp3881
(g23
I0
tp3882
a(g18
g582
tp3883
a(g25
I8
tp3884
a(g6
g7
(g11
S'\x05\x00\x00\x00\x00\x00\x00\x00'
p3885
tp3886
Rp3887
tp3888
a(g27
I0
tp3889
atp3890
Rp3891
I1
tp3892
F0.0
s(g4
((lp3893
(g18
g1122
tp3894
a(g23
I1
tp3895
a(g6
g7
(g11
S'\xf9\xff\xff\xff\xff\xff\xff\xff'
p3896
tp3897
Rp3898
tp3899
a(g25
I-1
tp3900
a(g27
I0
tp3901
atp3902
Rp3903
I0
tp3904
F-0.31000000000000005
s(g4
((lp3905
(g23
I0
tp3906
a(g6
g7
(g11
S'\x03\x00\x00\x00\x00\x00\x00\x00'
p3907
tp3908
Rp3909
tp3910
a(g18
g142
tp3911
a(g25
I7
tp3912
a(g27
I0
tp3913
atp3914
Rp3915
I0
tp3916
F0.05926695432341002
s(g4
((lp3917
(g6
g7
(g11
S'\xfb\xff\xff\xff\xff\xff\xff\xff'
p3918
tp3919
Rp3920
tp3921
a(g18
g326
tp3922
a(g23
I1
tp3923
a(g25
I6
tp3924
a(g27
I0
tp3925
atp3926
Rp3927
I0
tp3928
F-0.44666666647771824
s(g2159
I0
tp3929
F-0.005664879647767402
s(g2174
I1
tp3930
F0.0
s(g4
((lp3931
(g23
I0
tp3932
a(g18
g2457
tp3933
a(g25
I6
tp3934
a(g27
I1
tp3935
a(g6
g7
(g11
S'\x0c\x00\x00\x00\x00\x00\x00\x00'
p3936
tp3937
Rp3938
tp3939
atp3940
Rp3941
I0
tp3942
F0.0
s(g4
((lp3943
(g23
I0
tp3944
a(g18
g7
(g11
S'\x01\x00\x00\x00\x00\x00\x00\x00'
p3945
tp3946
Rp3947
tp3948
a(g6
g7
(g11
S'\t\x00\x00\x00\x00\x00\x00\x00'
p3949
tp3950
Rp3951
tp3952
a(g25
I5
tp3953
a(g27
I1
tp3954
atp3955
Rp3956
I0
tp3957
F-0.3129472133333334
s(g2201
I1
tp3958
F0.0
s(g4
((lp3959
(g23
I0
tp3960
a(g18
g80
tp3961
a(g25
I6
tp3962
a(g27
I1
tp3963
a(g6
g7
(g11
S'\x00\x00\x00\x00\x00\x00\x00\x00'
p3964
tp3965
Rp3966
tp3967
atp3968
Rp3969
I0
tp3970
F4.615391713268033e-06
s(g4
((lp3971
(g23
I0
tp3972
a(g18
g7
(g11
S'\x01\x00\x00\x00\x00\x00\x00\x00'
p3973
tp3974
Rp3975
tp3976
a(g6
g7
(g11
S'\n\x00\x00\x00\x00\x00\x00\x00'
p3977
tp3978
Rp3979
tp3980
a(g27
I1
tp3981
a(g25
I5
tp3982
atp3983
Rp3984
I1
tp3985
F0.0
s(g2213
I1
tp3986
F0.0
s(g3301
I0
tp3987
F4.263925506256951e-12
s(g4
((lp3988
(g25
I4
tp3989
a(g18
g371
tp3990
a(g23
I1
tp3991
a(g6
g7
(g11
S'\xfd\xff\xff\xff\xff\xff\xff\xff'
p3992
tp3993
Rp3994
tp3995
a(g27
I0
tp3996
atp3997
Rp3998
I1
tp3999
F0.0009147284327834191
s(g2261
I1
tp4000
F0.0
s(g4
((lp4001
(g23
I0
tp4002
a(g18
g528
tp4003
a(g25
I5
tp4004
a(g27
I1
tp4005
a(g6
g7
(g11
S'\x01\x00\x00\x00\x00\x00\x00\x00'
p4006
tp4007
Rp4008
tp4009
atp4010
Rp4011
I1
tp4012
F0.0
s(g2270
I0
tp4013
F0.03707873812737645
s(g2451
I1
tp4014
F0.0
s(g4
((lp4015
(g23
I0
tp4016
a(g18
g3519
tp4017
a(g25
I8
tp4018
a(g6
g7
(g11
S'\x00\x00\x00\x00\x00\x00\x00\x00'
p4019
tp4020
Rp4021
tp4022
a(g27
I0
tp4023
atp4024
Rp4025
I0
tp4026
F1.3853398992464155e-06
s(g4
((lp4027
(g6
g7
(g11
S'\xfb\xff\xff\xff\xff\xff\xff\xff'
p4028
tp4029
Rp4030
tp4031
a(g18
g1877
tp4032
a(g23
I1
tp4033
a(g25
I8
tp4034
a(g27
I0
tp4035
atp4036
Rp4037
I0
tp4038
F-0.45513785714760835
s(g4
((lp4039
(g18
g1877
tp4040
a(g23
I1
tp4041
a(g6
g7
(g11
S'\xf7\xff\xff\xff\xff\xff\xff\xff'
p4042
tp4043
Rp4044
tp4045
a(g25
I7
tp4046
a(g27
I0
tp4047
atp4048
Rp4049
I1
tp4050
F1.3889645203646864e-10
s(g4
((lp4051
(g25
I4
tp4052
a(g6
g7
(g11
S'\xf4\xff\xff\xff\xff\xff\xff\xff'
p4053
tp4054
Rp4055
tp4056
a(g18
g51
tp4057
a(g23
I1
tp4058
a(g27
I0
tp4059
atp4060
Rp4061
I1
tp4062
F0.0
s(g4
((lp4063
(g23
I0
tp4064
a(g25
I4
tp4065
a(g18
g1159
tp4066
a(g6
g7
(g11
S'\xfa\xff\xff\xff\xff\xff\xff\xff'
p4067
tp4068
Rp4069
tp4070
a(g27
I0
tp4071
atp4072
Rp4073
I0
tp4074
F-0.6609227455970093
s(g2336
I1
tp4075
F0.0
s(g4
((lp4076
(g23
I0
tp4077
a(g18
g96
tp4078
a(g27
I1
tp4079
a(g6
g7
(g11
S'\x00\x00\x00\x00\x00\x00\x00\x00'
p4080
tp4081
Rp4082
tp4083
a(g25
I6
tp4084
atp4085
Rp4086
I1
tp4087
F0.0019034658505227044
s(g4
((lp4088
(g6
g7
(g11
S'\xfb\xff\xff\xff\xff\xff\xff\xff'
p4089
tp4090
Rp4091
tp4092
a(g25
I3
tp4093
a(g18
g1781
tp4094
a(g23
I1
tp4095
a(g27
I0
tp4096
atp4097
Rp4098
I1
tp4099
F0.0
s(g4
((lp4100
(g18
g371
tp4101
a(g23
I1
tp4102
a(g6
g7
(g11
S'\xfc\xff\xff\xff\xff\xff\xff\xff'
p4103
tp4104
Rp4105
tp4106
a(g25
I3
tp4107
a(g27
I0
tp4108
atp4109
Rp4110
I1
tp4111
F0.00257141530092564
s(g4
((lp4112
(g23
I0
tp4113
a(g18
g2291
tp4114
a(g6
g7
(g11
S'\x02\x00\x00\x00\x00\x00\x00\x00'
p4115
tp4116
Rp4117
tp4118
a(g25
I7
tp4119
a(g27
I0
tp4120
atp4121
Rp4122
I1
tp4123
F0.00024377783665827498
s(g2424
I1
tp4124
F-0.0025974155818442165
s(g4
((lp4125
(g23
I0
tp4126
a(g18
g429
tp4127
a(g25
I6
tp4128
a(g27
I1
tp4129
a(g6
g7
(g11
S'\x06\x00\x00\x00\x00\x00\x00\x00'
p4130
tp4131
Rp4132
tp4133
atp4134
Rp4135
I0
tp4136
F-0.13805749034651477
s(g4
((lp4137
(g23
I0
tp4138
a(g18
g240
tp4139
a(g6
g7
(g11
S'\xfe\xff\xff\xff\xff\xff\xff\xff'
p4140
tp4141
Rp4142
tp4143
a(g25
I3
tp4144
a(g27
I0
tp4145
atp4146
Rp4147
I1
tp4148
F0.0
s(g2490
I1
tp4149
F0.0
s(g4
((lp4150
(g23
I0
tp4151
a(g6
g7
(g11
S'\x04\x00\x00\x00\x00\x00\x00\x00'
p4152
tp4153
Rp4154
tp4155
a(g18
g7
(g11
S'\x04\x00\x00\x00\x00\x00\x00\x00'
p4156
tp4157
Rp4158
tp4159
a(g27
I1
tp4160
a(g25
I6
tp4161
atp4162
Rp4163
I1
tp4164
F0.0
s(g4
((lp4165
(g18
g543
tp4166
a(g23
I1
tp4167
a(g25
I8
tp4168
a(g6
g7
(g11
S'\xfe\xff\xff\xff\xff\xff\xff\xff'
p4169
tp4170
Rp4171
tp4172
a(g27
I0
tp4173
atp4174
Rp4175
I1
tp4176
F0.0
s(g4
((lp4177
(g23
I0
tp4178
a(g18
g825
tp4179
a(g25
I3
tp4180
a(g6
g7
(g11
S'\xfd\xff\xff\xff\xff\xff\xff\xff'
p4181
tp4182
Rp4183
tp4184
a(g27
I0
tp4185
atp4186
Rp4187
I1
tp4188
F0.0
s(g2517
I0
tp4189
F-0.16916666666666666
s(g4
((lp4190
(g23
I0
tp4191
a(g18
g1877
tp4192
a(g6
g7
(g11
S'\xfa\xff\xff\xff\xff\xff\xff\xff'
p4193
tp4194
Rp4195
tp4196
a(g25
I7
tp4197
a(g27
I0
tp4198
atp4199
Rp4200
I1
tp4201
F0.052405031702910033
s(g2529
I0
tp4202
F0.0
s(g4
((lp4203
(g18
g1877
tp4204
a(g23
I1
tp4205
a(g25
I6
tp4206
a(g6
g7
(g11
S'\xf6\xff\xff\xff\xff\xff\xff\xff'
p4207
tp4208
Rp4209
tp4210
a(g27
I0
tp4211
atp4212
Rp4213
I1
tp4214
F0.0
s(g2541
I0
tp4215
F1.1756827717697985e-05
s(g4
((lp4216
(g23
I0
tp4217
a(g18
g528
tp4218
a(g6
g7
(g11
S'\xff\xff\xff\xff\xff\xff\xff\xff'
p4219
tp4220
Rp4221
tp4222
a(g25
I6
tp4223
a(g27
I0
tp4224
atp4225
Rp4226
I1
tp4227
F0.008646232613304798
s(g2568
I1
tp4228
F0.0
s(g4
((lp4229
(g23
I0
tp4230
a(g18
g1273
tp4231
a(g25
I-1
tp4232
a(g27
I1
tp4233
a(g6
g7
(g11
S'\x00\x00\x00\x00\x00\x00\x00\x00'
p4234
tp4235
Rp4236
tp4237
atp4238
Rp4239
I1
tp4240
F0.00011298402054299924
s(g2580
I0
tp4241
F-0.4299999970591509
s(g4
((lp4242
(g23
I0
tp4243
a(g18
g21
tp4244
a(g25
I8
tp4245
a(g6
g7
(g11
S'\x03\x00\x00\x00\x00\x00\x00\x00'
p4246
tp4247
Rp4248
tp4249
a(g27
I0
tp4250
atp4251
Rp4252
I0
tp4253
F1.869837075385484e-07
s(g4
((lp4254
(g23
I0
tp4255
a(g18
g2183
tp4256
a(g6
g7
(g11
S'\xfe\xff\xff\xff\xff\xff\xff\xff'
p4257
tp4258
Rp4259
tp4260
a(g25
I4
tp4261
a(g27
I0
tp4262
atp4263
Rp4264
I0
tp4265
F0.0012463030730548129
s(g4
((lp4266
(g23
I0
tp4267
a(g18
g681
tp4268
a(g6
g7
(g11
S'\x01\x00\x00\x00\x00\x00\x00\x00'
p4269
tp4270
Rp4271
tp4272
a(g25
I5
tp4273
a(g27
I1
tp4274
atp4275
Rp4276
I0
tp4277
F1.5920327214033486e-06
s(g2604
I1
tp4278
F0.0
s(g4
((lp4279
(g23
I0
tp4280
a(g18
g7
(g11
S'\x01\x00\x00\x00\x00\x00\x00\x00'
p4281
tp4282
Rp4283
tp4284
a(g6
g7
(g11
S'\n\x00\x00\x00\x00\x00\x00\x00'
p4285
tp4286
Rp4287
tp4288
a(g25
I5
tp4289
a(g27
I0
tp4290
atp4291
Rp4292
I0
tp4293
F0.0
s(g2619
I0
tp4294
F-0.6583401507840148
s(g4
((lp4295
(g23
I0
tp4296
a(g18
g179
tp4297
a(g27
I1
tp4298
a(g25
I7
tp4299
a(g6
g7
(g11
S'\x03\x00\x00\x00\x00\x00\x00\x00'
p4300
tp4301
Rp4302
tp4303
atp4304
Rp4305
I0
tp4306
F-1.6644863510383845e-05
s(g4
((lp4307
(g23
I0
tp4308
a(g25
I8
tp4309
a(g18
g51
tp4310
a(g6
g7
(g11
S'\xf7\xff\xff\xff\xff\xff\xff\xff'
p4311
tp4312
Rp4313
tp4314
a(g27
I0
tp4315
atp4316
Rp4317
I1
tp4318
F0.0
s(g2655
I1
tp4319
F0.0
s(g2697
I1
tp4320
F-0.0005148076713529606
s(g4
((lp4321
(g23
I0
tp4322
a(g18
g179
tp4323
a(g6
g7
(g11
S'\x02\x00\x00\x00\x00\x00\x00\x00'
p4324
tp4325
Rp4326
tp4327
a(g27
I1
tp4328
a(g25
I8
tp4329
atp4330
Rp4331
I0
tp4332
F1.363555016826481e-07
s(g4
((lp4333
(g23
I0
tp4334
a(g6
g7
(g11
S'\x03\x00\x00\x00\x00\x00\x00\x00'
p4335
tp4336
Rp4337
tp4338
a(g18
g1842
tp4339
a(g27
I1
tp4340
a(g25
I1
tp4341
atp4342
Rp4343
I0
tp4344
F0.15727759076455852
s(g4
((lp4345
(g6
g7
(g11
S'\xfc\xff\xff\xff\xff\xff\xff\xff'
p4346
tp4347
Rp4348
tp4349
a(g18
g3833
tp4350
a(g23
I1
tp4351
a(g25
I3
tp4352
a(g27
I0
tp4353
atp4354
Rp4355
I0
tp4356
F-0.2725
s(g2760
I0
tp4357
F0.0016685978695889932
s(g4
((lp4358
(g23
I0
tp4359
a(g18
g7
(g11
S'\x04\x00\x00\x00\x00\x00\x00\x00'
p4360
tp4361
Rp4362
tp4363
a(g27
I1
tp4364
a(g6
g7
(g11
S'\x00\x00\x00\x00\x00\x00\x00\x00'
p4365
tp4366
Rp4367
tp4368
a(g25
I9
tp4369
atp4370
Rp4371
I0
tp4372
F0.03319908783542487
s(g4
((lp4373
(g6
g7
(g11
S'\xf4\xff\xff\xff\xff\xff\xff\xff'
p4374
tp4375
Rp4376
tp4377
a(g18
g7
(g11
S'\x04\x00\x00\x00\x00\x00\x00\x00'
p4378
tp4379
Rp4380
tp4381
a(g23
I1
tp4382
a(g25
I8
tp4383
a(g27
I0
tp4384
atp4385
Rp4386
I0
tp4387
F0.0
s(g4
((lp4388
(g23
I0
tp4389
a(g6
g7
(g11
S'\x04\x00\x00\x00\x00\x00\x00\x00'
p4390
tp4391
Rp4392
tp4393
a(g18
g857
tp4394
a(g27
I1
tp4395
a(g25
I9
tp4396
atp4397
Rp4398
I0
tp4399
F0.006282786494923265
s(g4
((lp4400
(g23
I0
tp4401
a(g18
g21
tp4402
a(g25
I4
tp4403
a(g6
g7
(g11
S'\x00\x00\x00\x00\x00\x00\x00\x00'
p4404
tp4405
Rp4406
tp4407
a(g27
I0
tp4408
atp4409
Rp4410
I1
tp4411
F0.0
s(g4
((lp4412
(g23
I0
tp4413
a(g18
g179
tp4414
a(g25
I-1
tp4415
a(g6
g7
(g11
S'\x00\x00\x00\x00\x00\x00\x00\x00'
p4416
tp4417
Rp4418
tp4419
a(g27
I0
tp4420
atp4421
Rp4422
I0
tp4423
F2.810677917294126e-13
s(g4
((lp4424
(g23
I0
tp4425
a(g18
g738
tp4426
a(g6
g7
(g11
S'\x02\x00\x00\x00\x00\x00\x00\x00'
p4427
tp4428
Rp4429
tp4430
a(g27
I1
tp4431
a(g25
I2
tp4432
atp4433
Rp4434
I0
tp4435
F0.0035474176579944525
s(g2857
I0
tp4436
F1.4424821053265865e-10
s(g4
((lp4437
(g23
I0
tp4438
a(g25
I8
tp4439
a(g18
g7
(g11
S'\x04\x00\x00\x00\x00\x00\x00\x00'
p4440
tp4441
Rp4442
tp4443
a(g27
I1
tp4444
a(g6
g7
(g11
S'\x06\x00\x00\x00\x00\x00\x00\x00'
p4445
tp4446
Rp4447
tp4448
atp4449
Rp4450
I1
tp4451
F0.0
s(g2869
I0
tp4452
F0.0
s(g4
((lp4453
(g6
g7
(g11
S'\xfb\xff\xff\xff\xff\xff\xff\xff'
p4454
tp4455
Rp4456
tp4457
a(g18
g357
tp4458
a(g25
I-2
tp4459
a(g23
I1
tp4460
a(g27
I0
tp4461
atp4462
Rp4463
I0
tp4464
F-0.19666666666666668
s(g4
((lp4465
(g23
I0
tp4466
a(g18
g429
tp4467
a(g6
g7
(g11
S'\xfb\xff\xff\xff\xff\xff\xff\xff'
p4468
tp4469
Rp4470
tp4471
a(g25
I-1
tp4472
a(g27
I0
tp4473
atp4474
Rp4475
I1
tp4476
F0.0
s(g2883
I0
tp4477
F0.039858431638335336
s(g3876
I0
tp4478
F9.896177707568582e-09
s(g4
((lp4479
(g23
I0
tp4480
a(g25
I4
tp4481
a(g18
g254
tp4482
a(g6
g7
(g11
S'\xfe\xff\xff\xff\xff\xff\xff\xff'
p4483
tp4484
Rp4485
tp4486
a(g27
I0
tp4487
atp4488
Rp4489
I1
tp4490
F0.043238722517691584
s(g4
((lp4491
(g23
I0
tp4492
a(g25
I4
tp4493
a(g18
g196
tp4494
a(g27
I1
tp4495
a(g6
g7
(g11
S'\x01\x00\x00\x00\x00\x00\x00\x00'
p4496
tp4497
Rp4498
tp4499
atp4500
Rp4501
I0
tp4502
F0.18763590371362204
s(g4
((lp4503
(g23
I0
tp4504
a(g18
g681
tp4505
a(g25
I7
tp4506
a(g6
g7
(g11
S'\x04\x00\x00\x00\x00\x00\x00\x00'
p4507
tp4508
Rp4509
tp4510
a(g27
I0
tp4511
atp4512
Rp4513
I0
tp4514
F-1.5462328686211101e-06
s(g2924
I0
tp4515
F0.5695445307275416
s(g4
((lp4516
(g23
I0
tp4517
a(g25
I4
tp4518
a(g18
g926
tp4519
a(g6
g7
(g11
S'\x07\x00\x00\x00\x00\x00\x00\x00'
p4520
tp4521
Rp4522
tp4523
a(g27
I0
tp4524
atp4525
Rp4526
I1
tp4527
F0.0
s(g2938
I0
tp4528
F0.0
s(g4
((lp4529
(g23
I0
tp4530
a(g18
g7
(g11
S'\x04\x00\x00\x00\x00\x00\x00\x00'
p4531
tp4532
Rp4533
tp4534
a(g25
I5
tp4535
a(g6
g7
(g11
S'\xf7\xff\xff\xff\xff\xff\xff\xff'
p4536
tp4537
Rp4538
tp4539
a(g27
I0
tp4540
atp4541
Rp4542
I0
tp4543
F0.0
s(g4
((lp4544
(g23
I0
tp4545
a(g18
g1420
tp4546
a(g6
g7
(g11
S'\xf9\xff\xff\xff\xff\xff\xff\xff'
p4547
tp4548
Rp4549
tp4550
a(g25
I8
tp4551
a(g27
I0
tp4552
atp4553
Rp4554
I0
tp4555
F1.719763894187314e-15
s(g2978
I0
tp4556
F8.241006730254929e-13
s(g4
((lp4557
(g23
I0
tp4558
a(g18
g312
tp4559
a(g6
g7
(g11
S'\xfe\xff\xff\xff\xff\xff\xff\xff'
p4560
tp4561
Rp4562
tp4563
a(g25
I0
tp4564
a(g27
I0
tp4565
atp4566
Rp4567
I1
tp4568
F0.00048721229238511384
s(g4
((lp4569
(g23
I0
tp4570
a(g18
g1435
tp4571
a(g25
I5
tp4572
a(g27
I1
tp4573
a(g6
g7
(g11
S'\x06\x00\x00\x00\x00\x00\x00\x00'
p4574
tp4575
Rp4576
tp4577
atp4578
Rp4579
I1
tp4580
F0.0
s(g4
((lp4581
(g18
g69
tp4582
a(g23
I1
tp4583
a(g6
g7
(g11
S'\xfe\xff\xff\xff\xff\xff\xff\xff'
p4584
tp4585
Rp4586
tp4587
a(g25
I3
tp4588
a(g27
I0
tp4589
atp4590
Rp4591
I0
tp4592
F0.026158835037039887
s(g4
((lp4593
(g6
g7
(g11
S'\xfc\xff\xff\xff\xff\xff\xff\xff'
p4594
tp4595
Rp4596
tp4597
a(g18
g326
tp4598
a(g23
I1
tp4599
a(g25
I7
tp4600
a(g27
I0
tp4601
atp4602
Rp4603
I0
tp4604
F-0.42333322217677766
s(g3017
I0
tp4605
F7.511247827323314e-21
s(g3408
I1
tp4606
F0.0
s(g4
((lp4607
(g23
I0
tp4608
a(g18
g681
tp4609
a(g25
I9
tp4610
a(g27
I1
tp4611
a(g6
g7
(g11
S'\x04\x00\x00\x00\x00\x00\x00\x00'
p4612
tp4613
Rp4614
tp4615
atp4616
Rp4617
I1
tp4618
F0.0
s(g3032
I0
tp4619
F1.882240570066071e-11
s(g4
((lp4620
(g23
I0
tp4621
a(g25
I4
tp4622
a(g18
g3359
tp4623
a(g6
g7
(g11
S'\x02\x00\x00\x00\x00\x00\x00\x00'
p4624
tp4625
Rp4626
tp4627
a(g27
I1
tp4628
atp4629
Rp4630
I1
tp4631
F0.0
s(g4
((lp4632
(g23
I0
tp4633
a(g18
g3975
tp4634
a(g6
g7
(g11
S'\t\x00\x00\x00\x00\x00\x00\x00'
p4635
tp4636
Rp4637
tp4638
a(g27
I1
tp4639
a(g25
I6
tp4640
atp4641
Rp4642
I1
tp4643
F-0.006198959979180246
s(g3044
I0
tp4644
F0.4745921760864778
s(g4
((lp4645
(g25
I4
tp4646
a(g18
g1393
tp4647
a(g23
I1
tp4648
a(g6
g7
(g11
S'\xf9\xff\xff\xff\xff\xff\xff\xff'
p4649
tp4650
Rp4651
tp4652
a(g27
I0
tp4653
atp4654
Rp4655
I1
tp4656
F-0.5341850000000001
s(g4
((lp4657
(g18
g179
tp4658
a(g25
I-2
tp4659
a(g23
I1
tp4660
a(g6
g7
(g11
S'\xff\xff\xff\xff\xff\xff\xff\xff'
p4661
tp4662
Rp4663
tp4664
a(g27
I0
tp4665
atp4666
Rp4667
I1
tp4668
F0.0
s(g3068
I0
tp4669
F3.003986558615942e-08
s(g3080
I1
tp4670
F0.0
s(g4
((lp4671
(g18
g80
tp4672
a(g25
I6
tp4673
a(g23
I1
tp4674
a(g6
g7
(g11
S'\xf8\xff\xff\xff\xff\xff\xff\xff'
p4675
tp4676
Rp4677
tp4678
a(g27
I0
tp4679
atp4680
Rp4681
I0
tp4682
F0.0
s(g3092
I0
tp4683
F-0.5100000000000001
s(g3104
I0
tp4684
F0.0
s(g234
I0
tp4685
F0.02967809189916131
s(g3134
I1
tp4686
F0.0
s(g4
((lp4687
(g6
g7
(g11
S'\xfc\xff\xff\xff\xff\xff\xff\xff'
p4688
tp4689
Rp4690
tp4691
a(g18
g326
tp4692
a(g23
I1
tp4693
a(g25
I-3
tp4694
a(g27
I0
tp4695
atp4696
Rp4697
I0
tp4698
F-0.75569868333123
s(g3159
I0
tp4699
F4.941177571337612e-05
s(g3171
I0
tp4700
F-0.03715335744281523
s(g3197
I0
tp4701
F0.4225620693234551
s(g4
((lp4702
(g23
I0
tp4703
a(g6
g7
(g11
S'\x04\x00\x00\x00\x00\x00\x00\x00'
p4704
tp4705
Rp4706
tp4707
a(g18
g142
tp4708
a(g25
I8
tp4709
a(g27
I0
tp4710
atp4711
Rp4712
I0
tp4713
F0.026340005529982568
s(g4
((lp4714
(g18
g825
tp4715
a(g25
I9
tp4716
a(g23
I1
tp4717
a(g6
I-1
tp4718
a(g27
I0
tp4719
atp4720
Rp4721
I1
tp4722
F0.0
s(g4
((lp4723
(g23
I0
tp4724
a(g18
g1174
tp4725
a(g25
I-2
tp4726
a(g27
I1
tp4727
a(g6
g7
(g11
S'\x06\x00\x00\x00\x00\x00\x00\x00'
p4728
tp4729
Rp4730
tp4731
atp4732
Rp4733
I1
tp4734
F0.0
s(g4
((lp4735
(g23
I0
tp4736
a(g18
g2183
tp4737
a(g25
I9
tp4738
a(g6
g7
(g11
S'\xfa\xff\xff\xff\xff\xff\xff\xff'
p4739
tp4740
Rp4741
tp4742
a(g27
I0
tp4743
atp4744
Rp4745
I0
tp4746
F0.0
s(g3234
I0
tp4747
F-0.009851111111111113
s(g3247
I0
tp4748
F-0.3689128854720627
s(g4
((lp4749
(g23
I0
tp4750
a(g18
g753
tp4751
a(g6
g7
(g11
S'\xff\xff\xff\xff\xff\xff\xff\xff'
p4752
tp4753
Rp4754
tp4755
a(g25
I-3
tp4756
a(g27
I0
tp4757
atp4758
Rp4759
I1
tp4760
F0.0008969514059395342
s(g4
((lp4761
(g23
I0
tp4762
a(g18
g240
tp4763
a(g6
g7
(g11
S'\t\x00\x00\x00\x00\x00\x00\x00'
p4764
tp4765
Rp4766
tp4767
a(g27
I1
tp4768
a(g25
I8
tp4769
atp4770
Rp4771
I1
tp4772
F0.0
s(g675
I0
tp4773
F-1.0968890202870614
s(g3262
I0
tp4774
F2.1126143472081541e-16
s(g4
((lp4775
(g23
I0
tp4776
a(g18
g179
tp4777
a(g6
g7
(g11
S'\x01\x00\x00\x00\x00\x00\x00\x00'
p4778
tp4779
Rp4780
tp4781
a(g25
I-3
tp4782
a(g27
I1
tp4783
atp4784
Rp4785
I0
tp4786
F3.6214282204879636e-10
s(g3276
I1
tp4787
F0.0
s(g4
((lp4788
(g18
g3519
tp4789
a(g23
I1
tp4790
a(g25
I3
tp4791
a(g6
g7
(g11
S'\xfd\xff\xff\xff\xff\xff\xff\xff'
p4792
tp4793
Rp4794
tp4795
a(g27
I0
tp4796
atp4797
Rp4798
I0
tp4799
F-0.2889417951628622
s(g3289
I1
tp4800
F0.0
s(g3313
I0
tp4801
F0.013681535659454555
s(g4
((lp4802
(g18
g1877
tp4803
a(g23
I1
tp4804
a(g6
g7
(g11
S'\xf9\xff\xff\xff\xff\xff\xff\xff'
p4805
tp4806
Rp4807
tp4808
a(g25
I7
tp4809
a(g27
I0
tp4810
atp4811
Rp4812
I0
tp4813
F-0.5066666666666667
s(g2643
I1
tp4814
F0.012051098458752752
s(g4
((lp4815
(g23
I0
tp4816
a(g6
g7
(g11
S'\x03\x00\x00\x00\x00\x00\x00\x00'
p4817
tp4818
Rp4819
tp4820
a(g18
g857
tp4821
a(g25
I-2
tp4822
a(g27
I0
tp4823
atp4824
Rp4825
I0
tp4826
F0.0007821622835146488
s(g690
I0
tp4827
F2.0896099823016127e-13
s(g4
((lp4828
(g23
I0
tp4829
a(g18
g825
tp4830
a(g25
I-3
tp4831
a(g27
I1
tp4832
a(g6
g7
(g11
S'\x03\x00\x00\x00\x00\x00\x00\x00'
p4833
tp4834
Rp4835
tp4836
atp4837
Rp4838
I0
tp4839
F2.2224817685838123e-11
s(g3340
I1
tp4840
F0.5184898654018293
s(g3352
I1
tp4841
F0.0
s(g4
((lp4842
(g6
g7
(g11
S'\xfc\xff\xff\xff\xff\xff\xff\xff'
p4843
tp4844
Rp4845
tp4846
a(g18
g1958
tp4847
a(g23
I1
tp4848
a(g25
I6
tp4849
a(g27
I0
tp4850
atp4851
Rp4852
I1
tp4853
F0.10472861525119635
s(g3367
I0
tp4854
F0.1750838818001076
s(g3379
I0
tp4855
F0.04308949105801115
s(g3392
I1
tp4856
F0.0
s(g2950
I0
tp4857
F0.0
s(g4
((lp4858
(g23
I0
tp4859
a(g18
g968
tp4860
a(g6
g7
(g11
S'\xf7\xff\xff\xff\xff\xff\xff\xff'
p4861
tp4862
Rp4863
tp4864
a(g25
I7
tp4865
a(g27
I0
tp4866
atp4867
Rp4868
I0
tp4869
F-5.509686860994763e-10
s(g4
((lp4870
(g6
g7
(g11
S'\xfb\xff\xff\xff\xff\xff\xff\xff'
p4871
tp4872
Rp4873
tp4874
a(g18
g1393
tp4875
a(g23
I1
tp4876
a(g25
I5
tp4877
a(g27
I0
tp4878
atp4879
Rp4880
I1
tp4881
F0.001265994984252024
s(g3420
I0
tp4882
F0.0
s(g3147
I0
tp4883
F0.0
s(g4
((lp4884
(g18
g3519
tp4885
a(g23
I1
tp4886
a(g6
g7
(g11
S'\xfc\xff\xff\xff\xff\xff\xff\xff'
p4887
tp4888
Rp4889
tp4890
a(g25
I2
tp4891
a(g27
I0
tp4892
atp4893
Rp4894
I0
tp4895
F-0.28500000000000003
s(g3433
I1
tp4896
F0.0
s(g3445
I0
tp4897
F-0.006480098757669913
s(g4
((lp4898
(g23
I0
tp4899
a(g18
g214
tp4900
a(g25
I7
tp4901
a(g6
g7
(g11
S'\xf9\xff\xff\xff\xff\xff\xff\xff'
p4902
tp4903
Rp4904
tp4905
a(g27
I0
tp4906
atp4907
Rp4908
I0
tp4909
F-1.9706093095805954e-05
s(g4
((lp4910
(g25
I4
tp4911
a(g18
g69
tp4912
a(g23
I1
tp4913
a(g6
g7
(g11
S'\xff\xff\xff\xff\xff\xff\xff\xff'
p4914
tp4915
Rp4916
tp4917
a(g27
I0
tp4918
atp4919
Rp4920
I0
tp4921
F0.004456977137969052
s(g3457
I0
tp4922
F4.849122770429834e-10
s(g1727
I1
tp4923
F0.0
s(g4
((lp4924
(g18
g1513
tp4925
a(g23
I1
tp4926
a(g25
I2
tp4927
a(g6
g7
(g11
S'\xfd\xff\xff\xff\xff\xff\xff\xff'
p4928
tp4929
Rp4930
tp4931
a(g27
I0
tp4932
atp4933
Rp4934
I0
tp4935
F-0.22890276542707663
s(g4
((lp4936
(g23
I0
tp4937
a(g6
g7
(g11
S'\x03\x00\x00\x00\x00\x00\x00\x00'
p4938
tp4939
Rp4940
tp4941
a(g18
g7
(g11
S'\x04\x00\x00\x00\x00\x00\x00\x00'
p4942
tp4943
Rp4944
tp4945
a(g25
I-3
tp4946
a(g27
I1
tp4947
atp4948
Rp4949
I1
tp4950
F0.0
s(g3472
I0
tp4951
F0.021858203001525855
s(g4
((lp4952
(g23
I0
tp4953
a(g18
g240
tp4954
a(g6
g7
(g11
S'\xff\xff\xff\xff\xff\xff\xff\xff'
p4955
tp4956
Rp4957
tp4958
a(g25
I2
tp4959
a(g27
I0
tp4960
atp4961
Rp4962
I1
tp4963
F0.0
s(g3484
I1
tp4964
F0.0
s(g4
((lp4965
(g23
I0
tp4966
a(g18
g130
tp4967
a(g6
g7
(g11
S'\x06\x00\x00\x00\x00\x00\x00\x00'
p4968
tp4969
Rp4970
tp4971
a(g25
I6
tp4972
a(g27
I0
tp4973
atp4974
Rp4975
I0
tp4976
F-6.077098778989526e-05
s(g3548
I1
tp4977
F0.0
s(g4
((lp4978
(g23
I0
tp4979
a(g18
g240
tp4980
a(g27
I1
tp4981
a(g6
g7
(g11
S'\x00\x00\x00\x00\x00\x00\x00\x00'
p4982
tp4983
Rp4984
tp4985
a(g25
I1
tp4986
atp4987
Rp4988
I1
tp4989
F0.0
s(g4
((lp4990
(g23
I0
tp4991
a(g18
g7
(g11
S'\x01\x00\x00\x00\x00\x00\x00\x00'
p4992
tp4993
Rp4994
tp4995
a(g6
g7
(g11
S'\x06\x00\x00\x00\x00\x00\x00\x00'
p4996
tp4997
Rp4998
tp4999
a(g25
I4
tp5000
a(g27
I0
tp5001
atp5002
Rp5003
I1
tp5004
F-0.07002418780793325
s(g4
((lp5005
(g23
I0
tp5006
a(g18
g444
tp5007
a(g25
I9
tp5008
a(g6
g7
(g11
S'\n\x00\x00\x00\x00\x00\x00\x00'
p5009
tp5010
Rp5011
tp5012
a(g27
I0
tp5013
atp5014
Rp5015
I0
tp5016
F0.0
s(g4
((lp5017
(g23
I0
tp5018
a(g18
g1312
tp5019
a(g6
g7
(g11
S'\x07\x00\x00\x00\x00\x00\x00\x00'
p5020
tp5021
Rp5022
tp5023
a(g27
I1
tp5024
a(g25
I-2
tp5025
atp5026
Rp5027
I1
tp5028
F-0.10666666666666666
s(g4
((lp5029
(g18
g2097
tp5030
a(g23
I1
tp5031
a(g6
g7
(g11
S'\xfe\xff\xff\xff\xff\xff\xff\xff'
p5032
tp5033
Rp5034
tp5035
a(g25
I2
tp5036
a(g27
I0
tp5037
atp5038
Rp5039
I1
tp5040
F0.059026608671457204
s(g805
I1
tp5041
F-0.010149453570855943
s(g4
((lp5042
(g6
g7
(g11
S'\xfb\xff\xff\xff\xff\xff\xff\xff'
p5043
tp5044
Rp5045
tp5046
a(g18
g7
(g11
S'\x01\x00\x00\x00\x00\x00\x00\x00'
p5047
tp5048
Rp5049
tp5050
a(g23
I1
tp5051
a(g25
I7
tp5052
a(g27
I0
tp5053
atp5054
Rp5055
I0
tp5056
F0.0
s(g4
((lp5057
(g23
I0
tp5058
a(g18
g429
tp5059
a(g25
I7
tp5060
a(g6
g7
(g11
S'\xfc\xff\xff\xff\xff\xff\xff\xff'
p5061
tp5062
Rp5063
tp5064
a(g27
I0
tp5065
atp5066
Rp5067
I0
tp5068
F6.719617914332424e-11
s(g4
((lp5069
(g23
I0
tp5070
a(g18
g3253
tp5071
a(g6
g7
(g11
S'\x01\x00\x00\x00\x00\x00\x00\x00'
p5072
tp5073
Rp5074
tp5075
a(g27
I1
tp5076
a(g25
I8
tp5077
atp5078
Rp5079
I1
tp5080
F0.0
s(g4
((lp5081
(g18
g326
tp5082
a(g23
I1
tp5083
a(g25
I0
tp5084
a(g6
g7
(g11
S'\xfe\xff\xff\xff\xff\xff\xff\xff'
p5085
tp5086
Rp5087
tp5088
a(g27
I0
tp5089
atp5090
Rp5091
I1
tp5092
F0.0006603036090957935
s(g3657
I1
tp5093
F0.0014271826030842283
s(g4
((lp5094
(g23
I0
tp5095
a(g18
g357
tp5096
a(g6
g7
(g11
S'\x02\x00\x00\x00\x00\x00\x00\x00'
p5097
tp5098
Rp5099
tp5100
a(g27
I1
tp5101
a(g25
I7
tp5102
atp5103
Rp5104
I1
tp5105
F0.0
s(g4
((lp5106
(g23
I0
tp5107
a(g18
g459
tp5108
a(g6
g7
(g11
S'\x07\x00\x00\x00\x00\x00\x00\x00'
p5109
tp5110
Rp5111
tp5112
a(g27
I1
tp5113
a(g25
I8
tp5114
atp5115
Rp5116
I1
tp5117
F0.0
s(g4305
I1
tp5118
F-9.016667958780152e-06
s(g4
((lp5119
(g23
I0
tp5120
a(g18
g111
tp5121
a(g27
I1
tp5122
a(g6
g7
(g11
S'\x01\x00\x00\x00\x00\x00\x00\x00'
p5123
tp5124
Rp5125
tp5126
a(g25
I9
tp5127
atp5128
Rp5129
I1
tp5130
F0.0
s(g3579
I0
tp5131
F-0.6461375695493434
s(g4
((lp5132
(g23
I0
tp5133
a(g18
g681
tp5134
a(g25
I0
tp5135
a(g6
g7
(g11
S'\x00\x00\x00\x00\x00\x00\x00\x00'
p5136
tp5137
Rp5138
tp5139
a(g27
I0
tp5140
atp5141
Rp5142
I1
tp5143
F0.0
s(g483
I1
tp5144
F0.0
s(g3592
I1
tp5145
F0.0
s(g4
((lp5146
(g23
I0
tp5147
a(g6
g7
(g11
S'\xfc\xff\xff\xff\xff\xff\xff\xff'
p5148
tp5149
Rp5150
tp5151
a(g18
g3833
tp5152
a(g25
I5
tp5153
a(g27
I0
tp5154
atp5155
Rp5156
I1
tp5157
F0.0020828537350004793
s(g4
((lp5158
(g23
I0
tp5159
a(g18
g357
tp5160
a(g6
g7
(g11
S'\x01\x00\x00\x00\x00\x00\x00\x00'
p5161
tp5162
Rp5163
tp5164
a(g27
I1
tp5165
a(g25
I9
tp5166
atp5167
Rp5168
I0
tp5169
F5.032534823716117e-09
s(g3617
I1
tp5170
F0.15396245622278257
s(g3630
I0
tp5171
F0.1443660642949614
s(g4
((lp5172
(g18
g3519
tp5173
a(g25
I6
tp5174
a(g23
I1
tp5175
a(g6
g7
(g11
S'\xff\xff\xff\xff\xff\xff\xff\xff'
p5176
tp5177
Rp5178
tp5179
a(g27
I0
tp5180
atp5181
Rp5182
I0
tp5183
F9.998221514632939e-05
s(g4
((lp5184
(g6
g7
(g11
S'\xfb\xff\xff\xff\xff\xff\xff\xff'
p5185
tp5186
Rp5187
tp5188
a(g18
g1362
tp5189
a(g23
I1
tp5190
a(g25
I0
tp5191
a(g27
I0
tp5192
atp5193
Rp5194
I0
tp5195
F-0.3916666666666666
s(g3671
I1
tp5196
F0.0
s(g4
((lp5197
(g23
I0
tp5198
a(g18
g297
tp5199
a(g6
g7
(g11
S'\xfb\xff\xff\xff\xff\xff\xff\xff'
p5200
tp5201
Rp5202
tp5203
a(g25
I7
tp5204
a(g27
I0
tp5205
atp5206
Rp5207
I1
tp5208
F0.0
s(g3708
I0
tp5209
F0.2250188763249325
s(g4
((lp5210
(g25
I1
tp5211
a(g18
g2097
tp5212
a(g23
I1
tp5213
a(g6
g7
(g11
S'\xfe\xff\xff\xff\xff\xff\xff\xff'
p5214
tp5215
Rp5216
tp5217
a(g27
I0
tp5218
atp5219
Rp5220
I0
tp5221
F0.8497805173340067
s(g3056
I1
tp5222
F0.0
s(g4
((lp5223
(g23
I0
tp5224
a(g18
g240
tp5225
a(g6
g7
(g11
S'\t\x00\x00\x00\x00\x00\x00\x00'
p5226
tp5227
Rp5228
tp5229
a(g25
I6
tp5230
a(g27
I0
tp5231
atp5232
Rp5233
I0
tp5234
F0.0
s(g3745
I1
tp5235
F-1.6886106512673925e-08
s(g3758
I0
tp5236
F0.0
s(g3772
I1
tp5237
F0.47825809337347147
s(g3784
I0
tp5238
F4.380749018898024e-06
s(g4
((lp5239
(g23
I0
tp5240
a(g18
g51
tp5241
a(g6
g7
(g11
S'\xff\xff\xff\xff\xff\xff\xff\xff'
p5242
tp5243
Rp5244
tp5245
a(g25
I7
tp5246
a(g27
I0
tp5247
atp5248
Rp5249
I0
tp5250
F0.0701948610941572
s(g4
((lp5251
(g23
I0
tp5252
a(g18
g240
tp5253
a(g6
g7
(g11
S'\t\x00\x00\x00\x00\x00\x00\x00'
p5254
tp5255
Rp5256
tp5257
a(g27
I1
tp5258
a(g25
I9
tp5259
atp5260
Rp5261
I0
tp5262
F0.0
s(g3811
I0
tp5263
F0.00012784537584616224
s(g4
((lp5264
(g23
I0
tp5265
a(g18
g2559
tp5266
a(g25
I-1
tp5267
a(g6
g7
(g11
S'\xfe\xff\xff\xff\xff\xff\xff\xff'
p5268
tp5269
Rp5270
tp5271
a(g27
I0
tp5272
atp5273
Rp5274
I1
tp5275
F0.0
s(g4
((lp5276
(g18
g2097
tp5277
a(g23
I1
tp5278
a(g25
I0
tp5279
a(g6
g7
(g11
S'\xfd\xff\xff\xff\xff\xff\xff\xff'
p5280
tp5281
Rp5282
tp5283
a(g27
I0
tp5284
atp5285
Rp5286
I0
tp5287
F0.009329635029846184
s(g3838
I0
tp5288
F-0.34372
s(g3851
I0
tp5289
F0.0
s(g4
((lp5290
(g18
g681
tp5291
a(g23
I1
tp5292
a(g6
g7
(g11
S'\xf8\xff\xff\xff\xff\xff\xff\xff'
p5293
tp5294
Rp5295
tp5296
a(g25
I7
tp5297
a(g27
I0
tp5298
atp5299
Rp5300
I1
tp5301
F0.0
s(g4
((lp5302
(g23
I0
tp5303
a(g6
g7
(g11
S'\xfb\xff\xff\xff\xff\xff\xff\xff'
p5304
tp5305
Rp5306
tp5307
a(g18
g1877
tp5308
a(g25
I5
tp5309
a(g27
I0
tp5310
atp5311
Rp5312
I0
tp5313
F-0.022283883555555557
s(g3864
I1
tp5314
F0.0
s(g4
((lp5315
(g23
I0
tp5316
a(g18
g738
tp5317
a(g6
g7
(g11
S'\x02\x00\x00\x00\x00\x00\x00\x00'
p5318
tp5319
Rp5320
tp5321
a(g25
I5
tp5322
a(g27
I0
tp5323
atp5324
Rp5325
I1
tp5326
F0.0
s(g4
((lp5327
(g23
I0
tp5328
a(g18
g651
tp5329
a(g6
g7
(g11
S'\x00\x00\x00\x00\x00\x00\x00\x00'
p5330
tp5331
Rp5332
tp5333
a(g25
I2
tp5334
a(g27
I0
tp5335
atp5336
Rp5337
I1
tp5338
F0.0
s(g4
((lp5339
(g25
I5
tp5340
a(g18
g7
(g11
S'\x04\x00\x00\x00\x00\x00\x00\x00'
p5341
tp5342
Rp5343
tp5344
a(g23
I1
tp5345
a(g6
g7
(g11
S'\xf5\xff\xff\xff\xff\xff\xff\xff'
p5346
tp5347
Rp5348
tp5349
a(g27
I0
tp5350
atp5351
Rp5352
I1
tp5353
F0.0
s(g3891
I0
tp5354
F0.0068090340988802255
s(g4
((lp5355
(g23
I0
tp5356
a(g6
g7
(g11
S'\x03\x00\x00\x00\x00\x00\x00\x00'
p5357
tp5358
Rp5359
tp5360
a(g18
g709
tp5361
a(g27
I1
tp5362
a(g25
I9
tp5363
atp5364
Rp5365
I1
tp5366
F0.0
s(g4
((lp5367
(g23
I0
tp5368
a(g18
g1943
tp5369
a(g25
I0
tp5370
a(g6
g7
(g11
S'\x01\x00\x00\x00\x00\x00\x00\x00'
p5371
tp5372
Rp5373
tp5374
a(g27
I0
tp5375
atp5376
Rp5377
I1
tp5378
F4.0179693940671096e-05
s(g4
((lp5379
(g23
I0
tp5380
a(g18
g2183
tp5381
a(g25
I-3
tp5382
a(g6
g7
(g11
S'\xfe\xff\xff\xff\xff\xff\xff\xff'
p5383
tp5384
Rp5385
tp5386
a(g27
I0
tp5387
atp5388
Rp5389
I0
tp5390
F1.4837702000187382e-10
s(g4
((lp5391
(g23
I0
tp5392
a(g18
g7
(g11
S'\x04\x00\x00\x00\x00\x00\x00\x00'
p5393
tp5394
Rp5395
tp5396
a(g25
I8
tp5397
a(g6
g7
(g11
S'\xfd\xff\xff\xff\xff\xff\xff\xff'
p5398
tp5399
Rp5400
tp5401
a(g27
I0
tp5402
atp5403
Rp5404
I1
tp5405
F0.0015057118154292758
s(g4
((lp5406
(g23
I0
tp5407
a(g25
I4
tp5408
a(g18
g2687
tp5409
a(g6
g7
(g11
S'\xf8\xff\xff\xff\xff\xff\xff\xff'
p5410
tp5411
Rp5412
tp5413
a(g27
I0
tp5414
atp5415
Rp5416
I0
tp5417
F-0.16333333333333336
s(g4
((lp5418
(g25
I4
tp5419
a(g18
g2291
tp5420
a(g23
I1
tp5421
a(g6
g7
(g11
S'\xf8\xff\xff\xff\xff\xff\xff\xff'
p5422
tp5423
Rp5424
tp5425
a(g27
I0
tp5426
atp5427
Rp5428
I1
tp5429
F-0.17857955555555555
s(g3927
I1
tp5430
F0.06765955800204353
s(g4
((lp5431
(g23
I0
tp5432
a(g25
I4
tp5433
a(g18
g154
tp5434
a(g6
g7
(g11
S'\x02\x00\x00\x00\x00\x00\x00\x00'
p5435
tp5436
Rp5437
tp5438
a(g27
I0
tp5439
atp5440
Rp5441
I1
tp5442
F-0.07443333333333334
s(g4
((lp5443
(g23
I0
tp5444
a(g18
g796
tp5445
a(g25
I5
tp5446
a(g27
I1
tp5447
a(g6
g7
(g11
S'\x03\x00\x00\x00\x00\x00\x00\x00'
p5448
tp5449
Rp5450
tp5451
atp5452
Rp5453
I0
tp5454
F-2.169223104164569e-05
s(g3941
I1
tp5455
F0.0
s(g4
((lp5456
(g23
I0
tp5457
a(g18
g254
tp5458
a(g25
I0
tp5459
a(g6
g7
(g11
S'\x00\x00\x00\x00\x00\x00\x00\x00'
p5460
tp5461
Rp5462
tp5463
a(g27
I0
tp5464
atp5465
Rp5466
I1
tp5467
F9.981233880468327e-05
s(g3956
I1
tp5468
F-0.28379448481327657
s(g3969
I1
tp5469
F0.0
s(g3510
I1
tp5470
F0.00156924335367503
s(g3984
I0
tp5471
F-0.0017477777777777784
s(g4
((lp5472
(g6
g7
(g11
S'\xfc\xff\xff\xff\xff\xff\xff\xff'
p5473
tp5474
Rp5475
tp5476
a(g18
g2097
tp5477
a(g23
I1
tp5478
a(g25
I0
tp5479
a(g27
I0
tp5480
atp5481
Rp5482
I0
tp5483
F-0.537795
s(g4
((lp5484
(g23
I0
tp5485
a(g18
g1107
tp5486
a(g25
I-1
tp5487
a(g6
g7
(g11
S'\xfd\xff\xff\xff\xff\xff\xff\xff'
p5488
tp5489
Rp5490
tp5491
a(g27
I0
tp5492
atp5493
Rp5494
I1
tp5495
F0.0013831020548631533
s(g4
((lp5496
(g23
I0
tp5497
a(g6
g7
(g11
S'\xfc\xff\xff\xff\xff\xff\xff\xff'
p5498
tp5499
Rp5500
tp5501
a(g18
g326
tp5502
a(g25
I-2
tp5503
a(g27
I0
tp5504
atp5505
Rp5506
I1
tp5507
F0.0004911859502114755
s(g3998
I0
tp5508
F-0.06070589439475208
s(g4
((lp5509
(g23
I0
tp5510
a(g18
g7
(g11
S'\x01\x00\x00\x00\x00\x00\x00\x00'
p5511
tp5512
Rp5513
tp5514
a(g25
I5
tp5515
a(g6
g7
(g11
S'\xfc\xff\xff\xff\xff\xff\xff\xff'
p5516
tp5517
Rp5518
tp5519
a(g27
I0
tp5520
atp5521
Rp5522
I0
tp5523
F3.0493219018645897e-06
s(g4011
I0
tp5524
F0.10710091445204631
s(g4
((lp5525
(g18
g371
tp5526
a(g23
I1
tp5527
a(g6
g7
(g11
S'\xff\xff\xff\xff\xff\xff\xff\xff'
p5528
tp5529
Rp5530
tp5531
a(g25
I7
tp5532
a(g27
I0
tp5533
atp5534
Rp5535
I1
tp5536
F0.0
s(g4
((lp5537
(g23
I0
tp5538
a(g25
I3
tp5539
a(g18
g7
(g11
S'\x04\x00\x00\x00\x00\x00\x00\x00'
p5540
tp5541
Rp5542
tp5543
a(g6
g7
(g11
S'\x02\x00\x00\x00\x00\x00\x00\x00'
p5544
tp5545
Rp5546
tp5547
a(g27
I1
tp5548
atp5549
Rp5550
I0
tp5551
F0.06933363909721506
s(g4
((lp5552
(g23
I0
tp5553
a(g6
g7
(g11
S'\xfc\xff\xff\xff\xff\xff\xff\xff'
p5554
tp5555
Rp5556
tp5557
a(g18
g767
tp5558
a(g25
I6
tp5559
a(g27
I0
tp5560
atp5561
Rp5562
I0
tp5563
F0.10176515169394286
s(g4
((lp5564
(g23
I0
tp5565
a(g18
g1958
tp5566
a(g25
I9
tp5567
a(g6
I0
tp5568
a(g27
I0
tp5569
atp5570
Rp5571
I1
tp5572
F0.0004825535896232002
s(g4037
I1
tp5573
F0.043433649428569684
s(g4049
I0
tp5574
F-0.52
s(g4
((lp5575
(g23
I0
tp5576
a(g18
g7
(g11
S'\x01\x00\x00\x00\x00\x00\x00\x00'
p5577
tp5578
Rp5579
tp5580
a(g25
I6
tp5581
a(g6
g7
(g11
S'\n\x00\x00\x00\x00\x00\x00\x00'
p5582
tp5583
Rp5584
tp5585
a(g27
I1
tp5586
atp5587
Rp5588
I0
tp5589
F-0.26542638888888886
s(g4061
I0
tp5590
F0.0
s(g4073
I1
tp5591
F-0.5910059579994158
s(g4086
I0
tp5592
F0.0937680921547753
s(g4098
I0
tp5593
F0.0
s(g4175
I0
tp5594
F6.094182382921187e-11
s(g4110
I0
tp5595
F-0.2916666666666667
s(g4
((lp5596
(g23
I0
tp5597
a(g18
g3555
tp5598
a(g25
I-3
tp5599
a(g6
g7
(g11
S'\xfd\xff\xff\xff\xff\xff\xff\xff'
p5600
tp5601
Rp5602
tp5603
a(g27
I0
tp5604
atp5605
Rp5606
I1
tp5607
F0.0021539360450781257
s(g4122
I0
tp5608
F0.06678245748805425
s(g4
((lp5609
(g23
I0
tp5610
a(g25
I1
tp5611
a(g18
g4362
tp5612
a(g6
g7
(g11
S'\xfe\xff\xff\xff\xff\xff\xff\xff'
p5613
tp5614
Rp5615
tp5616
a(g27
I0
tp5617
atp5618
Rp5619
I0
tp5620
F0.9040377772899467
s(g4135
I1
tp5621
F-0.28887981489570536
s(g4
((lp5622
(g23
I0
tp5623
a(g18
g2559
tp5624
a(g25
I-2
tp5625
a(g6
g7
(g11
S'\xff\xff\xff\xff\xff\xff\xff\xff'
p5626
tp5627
Rp5628
tp5629
a(g27
I0
tp5630
atp5631
Rp5632
I1
tp5633
F0.0
s(g4
((lp5634
(g23
I0
tp5635
a(g18
g7
(g11
S'\x04\x00\x00\x00\x00\x00\x00\x00'
p5636
tp5637
Rp5638
tp5639
a(g6
g7
(g11
S'\xfe\xff\xff\xff\xff\xff\xff\xff'
p5640
tp5641
Rp5642
tp5643
a(g25
I6
tp5644
a(g27
I0
tp5645
atp5646
Rp5647
I0
tp5648
F0.1108408592780487
s(g4
((lp5649
(g23
I0
tp5650
a(g18
g342
tp5651
a(g25
I6
tp5652
a(g6
g7
(g11
S'\xfd\xff\xff\xff\xff\xff\xff\xff'
p5653
tp5654
Rp5655
tp5656
a(g27
I0
tp5657
atp5658
Rp5659
I1
tp5660
F0.004715818240153311
s(g4
((lp5661
(g23
I0
tp5662
a(g18
g7
(g11
S'\x04\x00\x00\x00\x00\x00\x00\x00'
p5663
tp5664
Rp5665
tp5666
a(g25
I-3
tp5667
a(g27
I1
tp5668
a(g6
g7
(g11
S'\x00\x00\x00\x00\x00\x00\x00\x00'
p5669
tp5670
Rp5671
tp5672
atp5673
Rp5674
I0
tp5675
F0.018532295672960566
s(g4163
I0
tp5676
F0.0005392453305020814
s(g1952
I1
tp5677
F6.77750327365537e-05
s(g4733
I0
tp5678
F-0.3033333333333333
s(g4
((lp5679
(g18
g2968
tp5680
a(g25
I6
tp5681
a(g23
I1
tp5682
a(g6
g7
(g11
S'\xfa\xff\xff\xff\xff\xff\xff\xff'
p5683
tp5684
Rp5685
tp5686
a(g27
I0
tp5687
atp5688
Rp5689
I0
tp5690
F0.0
s(g4187
I0
tp5691
F0.03725437900920022
s(g4
((lp5692
(g23
I0
tp5693
a(g6
g7
(g11
S'\x03\x00\x00\x00\x00\x00\x00\x00'
p5694
tp5695
Rp5696
tp5697
a(g18
g857
tp5698
a(g25
I-1
tp5699
a(g27
I0
tp5700
atp5701
Rp5702
I1
tp5703
F0.0
s(g4
((lp5704
(g18
g357
tp5705
a(g25
I-2
tp5706
a(g23
I1
tp5707
a(g6
g7
(g11
S'\xfc\xff\xff\xff\xff\xff\xff\xff'
p5708
tp5709
Rp5710
tp5711
a(g27
I0
tp5712
atp5713
Rp5714
I1
tp5715
F0.0
s(g4200
I0
tp5716
F1.2629016081092898e-06
s(g4213
I0
tp5717
F0.0
s(g4
((lp5718
(g23
I0
tp5719
a(g18
g2509
tp5720
a(g27
I1
tp5721
a(g25
I6
tp5722
a(g6
g7
(g11
S'\x06\x00\x00\x00\x00\x00\x00\x00'
p5723
tp5724
Rp5725
tp5726
atp5727
Rp5728
I1
tp5729
F0.0
s(g4
((lp5730
(g18
g142
tp5731
a(g23
I1
tp5732
a(g6
g7
(g11
S'\xff\xff\xff\xff\xff\xff\xff\xff'
p5733
tp5734
Rp5735
tp5736
a(g25
I5
tp5737
a(g27
I0
tp5738
atp5739
Rp5740
I1
tp5741
F0.014844852804279128
s(g4
((lp5742
(g23
I0
tp5743
a(g18
g1107
tp5744
a(g6
g7
(g11
S'\xfe\xff\xff\xff\xff\xff\xff\xff'
p5745
tp5746
Rp5747
tp5748
a(g25
I-1
tp5749
a(g27
I0
tp5750
atp5751
Rp5752
I0
tp5753
F0.013087175496502576
s(g4
((lp5754
(g23
I0
tp5755
a(g18
g5665
tp5756
a(g25
I-2
tp5757
a(g27
I1
tp5758
a(g6
g7
(g11
S'\x00\x00\x00\x00\x00\x00\x00\x00'
p5759
tp5760
Rp5761
tp5762
atp5763
Rp5764
I0
tp5765
F0.0063782492115433366
s(g4252
I1
tp5766
F0.0
s(g4276
I1
tp5767
F0.0
s(g4292
I1
tp5768
F0.0
s(g4317
I0
tp5769
F0.0003712911397564998
s(g3683
I1
tp5770
F0.0
s(g5249
I1
tp5771
F0.00289607413473085
s(g4
((lp5772
(g23
I0
tp5773
a(g6
I3
tp5774
a(g18
g2291
tp5775
a(g25
I9
tp5776
a(g27
I0
tp5777
atp5778
Rp5779
I0
tp5780
F0.03087359778814594
s(g4
((lp5781
(g23
I0
tp5782
a(g18
g142
tp5783
a(g6
g7
(g11
S'\x01\x00\x00\x00\x00\x00\x00\x00'
p5784
tp5785
Rp5786
tp5787
a(g25
I6
tp5788
a(g27
I0
tp5789
atp5790
Rp5791
I1
tp5792
F0.0
s(g4331
I1
tp5793
F0.0
s(g4
((lp5794
(g23
I0
tp5795
a(g18
g240
tp5796
a(g27
I1
tp5797
a(g6
g7
(g11
S'\x00\x00\x00\x00\x00\x00\x00\x00'
p5798
tp5799
Rp5800
tp5801
a(g25
I2
tp5802
atp5803
Rp5804
I0
tp5805
F0.07286916487601428
s(g4
((lp5806
(g23
I0
tp5807
a(g6
g7
(g11
S'\xfc\xff\xff\xff\xff\xff\xff\xff'
p5808
tp5809
Rp5810
tp5811
a(g18
g5395
tp5812
a(g25
I9
tp5813
a(g27
I0
tp5814
atp5815
Rp5816
I1
tp5817
F0.0
s(g4
((lp5818
(g23
I0
tp5819
a(g6
g7
(g11
S'\xfc\xff\xff\xff\xff\xff\xff\xff'
p5820
tp5821
Rp5822
tp5823
a(g18
g4362
tp5824
a(g25
I-1
tp5825
a(g27
I0
tp5826
atp5827
Rp5828
I0
tp5829
F0.013655366363160759
s(g4355
I1
tp5830
F0.2136024947816743
s(g1063
I1
tp5831
F1.3067900418368307e-18
s(g4371
I1
tp5832
F0.0007060554785994457
s(g4
((lp5833
(g23
I0
tp5834
a(g18
g297
tp5835
a(g6
g7
(g11
S'\xfb\xff\xff\xff\xff\xff\xff\xff'
p5836
tp5837
Rp5838
tp5839
a(g25
I-2
tp5840
a(g27
I0
tp5841
atp5842
Rp5843
I0
tp5844
F0.0
s(g5325
I0
tp5845
F0.0002215832394107664
s(g4
((lp5846
(g23
I0
tp5847
a(g18
g342
tp5848
a(g25
I8
tp5849
a(g6
g7
(g11
S'\xf8\xff\xff\xff\xff\xff\xff\xff'
p5850
tp5851
Rp5852
tp5853
a(g27
I0
tp5854
atp5855
Rp5856
I0
tp5857
F0.007214131796613791
s(g4398
I1
tp5858
F0.0
s(g4
((lp5859
(g23
I0
tp5860
a(g18
g2183
tp5861
a(g25
I6
tp5862
a(g6
g7
(g11
S'\xfd\xff\xff\xff\xff\xff\xff\xff'
p5863
tp5864
Rp5865
tp5866
a(g27
I0
tp5867
atp5868
Rp5869
I0
tp5870
F1.000974631345955e-06
s(g4
((lp5871
(g23
I0
tp5872
a(g18
g214
tp5873
a(g6
g7
(g11
S'\xfa\xff\xff\xff\xff\xff\xff\xff'
p5874
tp5875
Rp5876
tp5877
a(g25
I9
tp5878
a(g27
I0
tp5879
atp5880
Rp5881
I1
tp5882
F0.0
s(g5091
I0
tp5883
F0.007993981823196028
s(g4
((lp5884
(g23
I0
tp5885
a(g18
g179
tp5886
a(g25
I1
tp5887
a(g6
g7
(g11
S'\x02\x00\x00\x00\x00\x00\x00\x00'
p5888
tp5889
Rp5890
tp5891
a(g27
I0
tp5892
atp5893
Rp5894
I0
tp5895
F0.19615593919899213
s(g4
((lp5896
(g18
g80
tp5897
a(g25
I6
tp5898
a(g23
I1
tp5899
a(g6
g7
(g11
S'\xf7\xff\xff\xff\xff\xff\xff\xff'
p5900
tp5901
Rp5902
tp5903
a(g27
I0
tp5904
atp5905
Rp5906
I1
tp5907
F0.0
s(g4
((lp5908
(g23
I0
tp5909
a(g18
g474
tp5910
a(g25
I5
tp5911
a(g6
g7
(g11
S'\x08\x00\x00\x00\x00\x00\x00\x00'
p5912
tp5913
Rp5914
tp5915
a(g27
I0
tp5916
atp5917
Rp5918
I1
tp5919
F-0.0043502881535800505
s(g4434
I1
tp5920
F0.0
s(g4
((lp5921
(g23
I0
tp5922
a(g18
g2457
tp5923
a(g25
I5
tp5924
a(g27
I1
tp5925
a(g6
g7
(g11
S'\x0c\x00\x00\x00\x00\x00\x00\x00'
p5926
tp5927
Rp5928
tp5929
atp5930
Rp5931
I1
tp5932
F0.0
s(g4450
I0
tp5933
F2.9384579446607588e-06
s(g4
((lp5934
(g23
I0
tp5935
a(g18
g709
tp5936
a(g6
g7
(g11
S'\x02\x00\x00\x00\x00\x00\x00\x00'
p5937
tp5938
Rp5939
tp5940
a(g25
I-3
tp5941
a(g27
I0
tp5942
atp5943
Rp5944
I1
tp5945
F0.0
s(g4
((lp5946
(g23
I0
tp5947
a(g18
g444
tp5948
a(g6
g7
(g11
S'\x01\x00\x00\x00\x00\x00\x00\x00'
p5949
tp5950
Rp5951
tp5952
a(g25
I-2
tp5953
a(g27
I0
tp5954
atp5955
Rp5956
I0
tp5957
F3.931231836981835e-12
s(g4
((lp5958
(g18
g681
tp5959
a(g23
I1
tp5960
a(g25
I0
tp5961
a(g6
g7
(g11
S'\xfe\xff\xff\xff\xff\xff\xff\xff'
p5962
tp5963
Rp5964
tp5965
a(g27
I0
tp5966
atp5967
Rp5968
I0
tp5969
F4.530759968315306e-28
s(g4
((lp5970
(g23
I0
tp5971
a(g18
g1273
tp5972
a(g25
I-2
tp5973
a(g6
g7
(g11
S'\x01\x00\x00\x00\x00\x00\x00\x00'
p5974
tp5975
Rp5976
tp5977
a(g27
I0
tp5978
atp5979
Rp5980
I1
tp5981
F0.00012440318314940217
s(g4
((lp5982
(g18
g1984
tp5983
a(g23
I1
tp5984
a(g25
I8
tp5985
a(g6
g7
(g11
S'\xf8\xff\xff\xff\xff\xff\xff\xff'
p5986
tp5987
Rp5988
tp5989
a(g27
I0
tp5990
atp5991
Rp5992
I1
tp5993
F0.0
s(g4
((lp5994
(g23
I0
tp5995
a(g18
g240
tp5996
a(g25
I0
tp5997
a(g6
g7
(g11
S'\x02\x00\x00\x00\x00\x00\x00\x00'
p5998
tp5999
Rp6000
tp6001
a(g27
I1
tp6002
atp6003
Rp6004
I0
tp6005
F5.997376488639882e-16
s(g4501
I1
tp6006
F0.0
s(g4513
I1
tp6007
F-1.9798634995801114e-06
s(g4
((lp6008
(g23
I0
tp6009
a(g18
g825
tp6010
a(g25
I-2
tp6011
a(g27
I1
tp6012
a(g6
g7
(g11
S'\x03\x00\x00\x00\x00\x00\x00\x00'
p6013
tp6014
Rp6015
tp6016
atp6017
Rp6018
I1
tp6019
F0.0
s(g4
((lp6020
(g23
I0
tp6021
a(g18
g3253
tp6022
a(g6
g7
(g11
S'\x03\x00\x00\x00\x00\x00\x00\x00'
p6023
tp6024
Rp6025
tp6026
a(g25
I2
tp6027
a(g27
I0
tp6028
atp6029
Rp6030
I0
tp6031
F0.00015773022915781802
s(g4526
I0
tp6032
F0.0
s(g4
((lp6033
(g23
I0
tp6034
a(g18
g459
tp6035
a(g25
I-3
tp6036
a(g27
I1
tp6037
a(g6
g7
(g11
S'\x05\x00\x00\x00\x00\x00\x00\x00'
p6038
tp6039
Rp6040
tp6041
atp6042
Rp6043
I0
tp6044
F1.4588224321649216e-12
s(g4542
I1
tp6045
F0.0
s(g4554
I1
tp6046
F0.0
s(g4
((lp6047
(g18
g681
tp6048
a(g25
I-1
tp6049
a(g23
I1
tp6050
a(g6
g7
(g11
S'\xfe\xff\xff\xff\xff\xff\xff\xff'
p6051
tp6052
Rp6053
tp6054
a(g27
I0
tp6055
atp6056
Rp6057
I0
tp6058
F0.0
s(g4
((lp6059
(g23
I0
tp6060
a(g25
I4
tp6061
a(g18
g7
(g11
S'\x04\x00\x00\x00\x00\x00\x00\x00'
p6062
tp6063
Rp6064
tp6065
a(g27
I1
tp6066
a(g6
g7
(g11
S'\x05\x00\x00\x00\x00\x00\x00\x00'
p6067
tp6068
Rp6069
tp6070
atp6071
Rp6072
I1
tp6073
F-0.7226994495186067
s(g4
((lp6074
(g23
I0
tp6075
a(g25
I3
tp6076
a(g18
g528
tp6077
a(g6
g7
(g11
S'\x00\x00\x00\x00\x00\x00\x00\x00'
p6078
tp6079
Rp6080
tp6081
a(g27
I0
tp6082
atp6083
Rp6084
I1
tp6085
F0.012049079586826413
s(g4603
I1
tp6086
F0.07408475667489398
s(g4
((lp6087
(g23
I0
tp6088
a(g18
g2457
tp6089
a(g27
I1
tp6090
a(g25
I7
tp6091
a(g6
g7
(g11
S'\x0b\x00\x00\x00\x00\x00\x00\x00'
p6092
tp6093
Rp6094
tp6095
atp6096
Rp6097
I0
tp6098
F-0.13833333333333334
s(g4
((lp6099
(g23
I0
tp6100
a(g25
I4
tp6101
a(g18
g387
tp6102
a(g27
I1
tp6103
a(g6
g7
(g11
S'\t\x00\x00\x00\x00\x00\x00\x00'
p6104
tp6105
Rp6106
tp6107
atp6108
Rp6109
I0
tp6110
F0.0
s(g4
((lp6111
(g23
I0
tp6112
a(g6
g7
(g11
S'\xfb\xff\xff\xff\xff\xff\xff\xff'
p6113
tp6114
Rp6115
tp6116
a(g18
g4362
tp6117
a(g25
I-3
tp6118
a(g27
I0
tp6119
atp6120
Rp6121
I0
tp6122
F7.556475101375579e-13
s(g4
((lp6123
(g18
g357
tp6124
a(g23
I1
tp6125
a(g25
I8
tp6126
a(g6
g7
(g11
S'\xf5\xff\xff\xff\xff\xff\xff\xff'
p6127
tp6128
Rp6129
tp6130
a(g27
I0
tp6131
atp6132
Rp6133
I1
tp6134
F0.0
s(g4
((lp6135
(g23
I0
tp6136
a(g18
g681
tp6137
a(g6
g7
(g11
S'\x01\x00\x00\x00\x00\x00\x00\x00'
p6138
tp6139
Rp6140
tp6141
a(g27
I1
tp6142
a(g25
I7
tp6143
atp6144
Rp6145
I0
tp6146
F2.199488051523369e-07
s(g4630
I0
tp6147
F0.02348303529622426
s(g4642
I0
tp6148
F-0.00014608498546068576
s(g4
((lp6149
(g23
I0
tp6150
a(g6
g7
(g11
S'\x03\x00\x00\x00\x00\x00\x00\x00'
p6151
tp6152
Rp6153
tp6154
a(g18
g968
tp6155
a(g25
I5
tp6156
a(g27
I1
tp6157
atp6158
Rp6159
I0
tp6160
F-0.003952257220244565
s(g4
((lp6161
(g23
I0
tp6162
a(g18
g3359
tp6163
a(g6
g7
(g11
S'\x02\x00\x00\x00\x00\x00\x00\x00'
p6164
tp6165
Rp6166
tp6167
a(g27
I1
tp6168
a(g25
I7
tp6169
atp6170
Rp6171
I0
tp6172
F0.033183728251019555
s(g4681
I1
tp6173
F0.0
s(g4
((lp6174
(g23
I0
tp6175
a(g18
g1842
tp6176
a(g6
g7
(g11
S'\x02\x00\x00\x00\x00\x00\x00\x00'
p6177
tp6178
Rp6179
tp6180
a(g27
I1
tp6181
a(g25
I6
tp6182
atp6183
Rp6184
I1
tp6185
F0.0
s(g4
((lp6186
(g23
I0
tp6187
a(g18
g2097
tp6188
a(g6
g7
(g11
S'\xfe\xff\xff\xff\xff\xff\xff\xff'
p6189
tp6190
Rp6191
tp6192
a(g25
I2
tp6193
a(g27
I0
tp6194
atp6195
Rp6196
I1
tp6197
F0.010103084620314758
s(g4
((lp6198
(g23
I0
tp6199
a(g6
g7
(g11
S'\x03\x00\x00\x00\x00\x00\x00\x00'
p6200
tp6201
Rp6202
tp6203
a(g18
g857
tp6204
a(g27
I1
tp6205
a(g25
I7
tp6206
atp6207
Rp6208
I0
tp6209
F0.023450024628829145
s(g4
((lp6210
(g18
g312
tp6211
a(g23
I1
tp6212
a(g25
I8
tp6213
a(g6
g7
(g11
S'\xf6\xff\xff\xff\xff\xff\xff\xff'
p6214
tp6215
Rp6216
tp6217
a(g27
I0
tp6218
atp6219
Rp6220
I1
tp6221
F1.6473088838824162e-08
s(g4
((lp6222
(g18
g543
tp6223
a(g25
I9
tp6224
a(g23
I1
tp6225
a(g6
g7
(g11
S'\xfe\xff\xff\xff\xff\xff\xff\xff'
p6226
tp6227
Rp6228
tp6229
a(g27
I0
tp6230
atp6231
Rp6232
I1
tp6233
F0.0
s(g4
((lp6234
(g25
I4
tp6235
a(g18
g5638
tp6236
a(g23
I1
tp6237
a(g6
g7
(g11
S'\xff\xff\xff\xff\xff\xff\xff\xff'
p6238
tp6239
Rp6240
tp6241
a(g27
I0
tp6242
atp6243
Rp6244
I0
tp6245
F0.23517294528409904
s(g4
((lp6246
(g23
I0
tp6247
a(g18
g1312
tp6248
a(g25
I-1
tp6249
a(g27
I1
tp6250
a(g6
g7
(g11
S'\x06\x00\x00\x00\x00\x00\x00\x00'
p6251
tp6252
Rp6253
tp6254
atp6255
Rp6256
I0
tp6257
F0.0
s(g4
((lp6258
(g23
I0
tp6259
a(g18
g597
tp6260
a(g25
I6
tp6261
a(g6
g7
(g11
S'\xff\xff\xff\xff\xff\xff\xff\xff'
p6262
tp6263
Rp6264
tp6265
a(g27
I0
tp6266
atp6267
Rp6268
I0
tp6269
F1.675478928926068e-06
s(g4
((lp6270
(g23
I0
tp6271
a(g6
g7
(g11
S'\x04\x00\x00\x00\x00\x00\x00\x00'
p6272
tp6273
Rp6274
tp6275
a(g18
g582
tp6276
a(g25
I7
tp6277
a(g27
I0
tp6278
atp6279
Rp6280
I1
tp6281
F0.0
s(g4
((lp6282
(g23
I0
tp6283
a(g18
g429
tp6284
a(g6
g7
(g11
S'\x07\x00\x00\x00\x00\x00\x00\x00'
p6285
tp6286
Rp6287
tp6288
a(g27
I1
tp6289
a(g25
I6
tp6290
atp6291
Rp6292
I1
tp6293
F-0.0006125888604906712
s(g4697
I1
tp6294
F0.025192374538874757
s(g4
((lp6295
(g23
I0
tp6296
a(g25
I0
tp6297
a(g18
g5665
tp6298
a(g27
I1
tp6299
a(g6
g7
(g11
S'\x01\x00\x00\x00\x00\x00\x00\x00'
p6300
tp6301
Rp6302
tp6303
atp6304
Rp6305
I0
tp6306
F0.0023422764094812878
s(g4712
I1
tp6307
F0.0
s(g4
((lp6308
(g23
I0
tp6309
a(g18
g1781
tp6310
a(g25
I2
tp6311
a(g6
g7
(g11
S'\xfd\xff\xff\xff\xff\xff\xff\xff'
p6312
tp6313
Rp6314
tp6315
a(g27
I0
tp6316
atp6317
Rp6318
I1
tp6319
F0.0
s(g4721
I0
tp6320
F1.3755524822057415e-08
s(g4
((lp6321
(g18
g254
tp6322
a(g23
I1
tp6323
a(g6
g7
(g11
S'\xf9\xff\xff\xff\xff\xff\xff\xff'
p6324
tp6325
Rp6326
tp6327
a(g25
I-3
tp6328
a(g27
I0
tp6329
atp6330
Rp6331
I1
tp6332
F0.0
s(g4812
I1
tp6333
F0.014483131985628107
s(g4825
I1
tp6334
F0.0
s(g4745
I1
tp6335
F0.0
s(g4759
I0
tp6336
F0.025456927139220358
s(g4771
I0
tp6337
F0.0
s(g4785
I1
tp6338
F0.0
s(g4
((lp6339
(g25
I4
tp6340
a(g18
g883
tp6341
a(g6
g7
(g11
S'\xf9\xff\xff\xff\xff\xff\xff\xff'
p6342
tp6343
Rp6344
tp6345
a(g23
I1
tp6346
a(g27
I0
tp6347
atp6348
Rp6349
I0
tp6350
F0.0
s(g4
((lp6351
(g23
I0
tp6352
a(g18
g2183
tp6353
a(g27
I1
tp6354
a(g25
I8
tp6355
a(g6
g7
(g11
S'\x03\x00\x00\x00\x00\x00\x00\x00'
p6356
tp6357
Rp6358
tp6359
atp6360
Rp6361
I0
tp6362
F-6.912496485352578e-08
s(g4
((lp6363
(g23
I0
tp6364
a(g18
g286
tp6365
a(g25
I-1
tp6366
a(g6
g7
(g11
S'\x01\x00\x00\x00\x00\x00\x00\x00'
p6367
tp6368
Rp6369
tp6370
a(g27
I0
tp6371
atp6372
Rp6373
I0
tp6374
F0.010744814599212131
s(g4
((lp6375
(g23
I0
tp6376
a(g18
g444
tp6377
a(g6
g7
(g11
S'\x01\x00\x00\x00\x00\x00\x00\x00'
p6378
tp6379
Rp6380
tp6381
a(g25
I-3
tp6382
a(g27
I0
tp6383
atp6384
Rp6385
I1
tp6386
F0.0
s(g3605
I0
tp6387
F4.2158597281545845e-12
s(g4838
I1
tp6388
F0.0
s(g4
((lp6389
(g23
I0
tp6390
a(g18
g130
tp6391
a(g27
I1
tp6392
a(g25
I7
tp6393
a(g6
g7
(g11
S'\x06\x00\x00\x00\x00\x00\x00\x00'
p6394
tp6395
Rp6396
tp6397
atp6398
Rp6399
I0
tp6400
F4.3599401941168815e-06
s(g4852
I0
tp6401
F-0.49833330246838287
s(g4
((lp6402
(g18
g1362
tp6403
a(g23
I1
tp6404
a(g6
g7
(g11
S'\xfa\xff\xff\xff\xff\xff\xff\xff'
p6405
tp6406
Rp6407
tp6408
a(g25
I-1
tp6409
a(g27
I0
tp6410
atp6411
Rp6412
I0
tp6413
F0.0
s(g4
((lp6414
(g23
I0
tp6415
a(g18
g224
tp6416
a(g25
I7
tp6417
a(g6
g7
(g11
S'\xf8\xff\xff\xff\xff\xff\xff\xff'
p6418
tp6419
Rp6420
tp6421
a(g27
I0
tp6422
atp6423
Rp6424
I1
tp6425
F-2.840882075644267e-06
s(g4
((lp6426
(g23
I0
tp6427
a(g6
g7
(g11
S'\x03\x00\x00\x00\x00\x00\x00\x00'
p6428
tp6429
Rp6430
tp6431
a(g18
g709
tp6432
a(g25
I6
tp6433
a(g27
I0
tp6434
atp6435
Rp6436
I1
tp6437
F0.0
s(g4868
I1
tp6438
F0.0
s(g4
((lp6439
(g23
I0
tp6440
a(g18
g1174
tp6441
a(g6
g7
(g11
S'\n\x00\x00\x00\x00\x00\x00\x00'
p6442
tp6443
Rp6444
tp6445
a(g27
I1
tp6446
a(g25
I8
tp6447
atp6448
Rp6449
I0
tp6450
F0.0
s(g4880
I0
tp6451
F-0.02590329555555556
s(g4
((lp6452
(g23
I0
tp6453
a(g18
g825
tp6454
a(g27
I1
tp6455
a(g25
I8
tp6456
a(g6
g7
(g11
S'\x05\x00\x00\x00\x00\x00\x00\x00'
p6457
tp6458
Rp6459
tp6460
atp6461
Rp6462
I1
tp6463
F-0.0016977754982557313
s(g4894
I1
tp6464
F0.023593375176708502
s(g4908
I1
tp6465
F0.026470483255536716
s(g4
((lp6466
(g18
g179
tp6467
a(g23
I1
tp6468
a(g6
g7
(g11
S'\xfa\xff\xff\xff\xff\xff\xff\xff'
p6469
tp6470
Rp6471
tp6472
a(g25
I5
tp6473
a(g27
I0
tp6474
atp6475
Rp6476
I1
tp6477
F0.0
s(g4
((lp6478
(g23
I0
tp6479
a(g6
g7
(g11
S'\x07\x00\x00\x00\x00\x00\x00\x00'
p6480
tp6481
Rp6482
tp6483
a(g18
g501
tp6484
a(g27
I1
tp6485
a(g25
I7
tp6486
atp6487
Rp6488
I1
tp6489
F0.0
s(g1132
I1
tp6490
F0.0
s(g4
((lp6491
(g18
g21
tp6492
a(g25
I-1
tp6493
a(g23
I1
tp6494
a(g6
g7
(g11
S'\xfa\xff\xff\xff\xff\xff\xff\xff'
p6495
tp6496
Rp6497
tp6498
a(g27
I0
tp6499
atp6500
Rp6501
I0
tp6502
F-0.5850000000000001
s(g4934
I1
tp6503
F0.6733804304013338
s(g6018
I0
tp6504
F1.6036845269620565e-13
s(g4
((lp6505
(g23
I0
tp6506
a(g18
g1943
tp6507
a(g27
I1
tp6508
a(g6
g7
(g11
S'\x01\x00\x00\x00\x00\x00\x00\x00'
p6509
tp6510
Rp6511
tp6512
a(g25
I2
tp6513
atp6514
Rp6515
I0
tp6516
F0.6002863745800673
s(g4
((lp6517
(g23
I0
tp6518
a(g18
g681
tp6519
a(g25
I-2
tp6520
a(g6
g7
(g11
S'\x02\x00\x00\x00\x00\x00\x00\x00'
p6521
tp6522
Rp6523
tp6524
a(g27
I1
tp6525
atp6526
Rp6527
I1
tp6528
F0.0
s(g264
I0
tp6529
F0.01200111339852915
s(g1570
I0
tp6530
F0.19763243519608123
s(g4975
I1
tp6531
F0.0
s(g4239
I0
tp6532
F0.00980809989610835
s(g4
((lp6533
(g23
I0
tp6534
a(g18
g7
(g11
S'\x01\x00\x00\x00\x00\x00\x00\x00'
p6535
tp6536
Rp6537
tp6538
a(g25
I1
tp6539
a(g27
I1
tp6540
a(g6
g7
(g11
S'\x04\x00\x00\x00\x00\x00\x00\x00'
p6541
tp6542
Rp6543
tp6544
atp6545
Rp6546
I1
tp6547
F0.0
s(g4988
I0
tp6548
F0.646204447037714
s(g5003
I0
tp6549
F-0.24000000000000005
s(g4
((lp6550
(g18
g51
tp6551
a(g23
I1
tp6552
a(g6
g7
(g11
S'\xf8\xff\xff\xff\xff\xff\xff\xff'
p6553
tp6554
Rp6555
tp6556
a(g25
I7
tp6557
a(g27
I0
tp6558
atp6559
Rp6560
I1
tp6561
F0.0005371996500109376
s(g5015
I1
tp6562
F0.0
s(g4
((lp6563
(g23
I0
tp6564
a(g18
g214
tp6565
a(g6
g7
(g11
S'\xfa\xff\xff\xff\xff\xff\xff\xff'
p6566
tp6567
Rp6568
tp6569
a(g25
I6
tp6570
a(g27
I0
tp6571
atp6572
Rp6573
I0
tp6574
F-0.001146351430895174
s(g5027
I0
tp6575
F-0.5216666666666667
s(g1282
I0
tp6576
F0.025449083353785304
s(g5055
I1
tp6577
F0.0
s(g4
((lp6578
(g23
I0
tp6579
a(g18
g3975
tp6580
a(g27
I1
tp6581
a(g25
I4
tp6582
a(g6
g7
(g11
S'\x0b\x00\x00\x00\x00\x00\x00\x00'
p6583
tp6584
Rp6585
tp6586
atp6587
Rp6588
I1
tp6589
F-0.06739577777777779
s(g5067
I1
tp6590
F0.0
s(g5079
I0
tp6591
F2.16751520170092e-08
s(g4
((lp6592
(g6
g7
(g11
S'\xfb\xff\xff\xff\xff\xff\xff\xff'
p6593
tp6594
Rp6595
tp6596
a(g18
g2902
tp6597
a(g23
I1
tp6598
a(g25
I-3
tp6599
a(g27
I0
tp6600
atp6601
Rp6602
I1
tp6603
F0.0017133731969594277
s(g5104
I0
tp6604
F4.862738101503106e-07
s(g4
((lp6605
(g23
I0
tp6606
a(g18
g857
tp6607
a(g6
g7
(g11
S'\x06\x00\x00\x00\x00\x00\x00\x00'
p6608
tp6609
Rp6610
tp6611
a(g25
I9
tp6612
a(g27
I0
tp6613
atp6614
Rp6615
I1
tp6616
F0.0
s(g5116
I0
tp6617
F-2.341216506447256e-08
s(g4
((lp6618
(g23
I0
tp6619
a(g18
g254
tp6620
a(g25
I1
tp6621
a(g6
g7
(g11
S'\x00\x00\x00\x00\x00\x00\x00\x00'
p6622
tp6623
Rp6624
tp6625
a(g27
I0
tp6626
atp6627
Rp6628
I1
tp6629
F0.1119656866116285
s(g4667
I0
tp6630
F4.891068118481651e-12
s(g4
((lp6631
(g23
I0
tp6632
a(g18
g1393
tp6633
a(g6
g7
(g11
S'\x02\x00\x00\x00\x00\x00\x00\x00'
p6634
tp6635
Rp6636
tp6637
a(g25
I8
tp6638
a(g27
I0
tp6639
atp6640
Rp6641
I0
tp6642
F0.046748320337033716
s(g4
((lp6643
(g23
I0
tp6644
a(g18
g1984
tp6645
a(g6
g7
(g11
S'\xfb\xff\xff\xff\xff\xff\xff\xff'
p6646
tp6647
Rp6648
tp6649
a(g25
I9
tp6650
a(g27
I0
tp6651
atp6652
Rp6653
I1
tp6654
F0.0
s(g3720
I1
tp6655
F0.23178130678329317
s(g5129
I0
tp6656
F0.03053575485039539
s(g4
((lp6657
(g18
g3519
tp6658
a(g23
I1
tp6659
a(g6
g7
(g11
S'\xff\xff\xff\xff\xff\xff\xff\xff'
p6660
tp6661
Rp6662
tp6663
a(g25
I5
tp6664
a(g27
I0
tp6665
atp6666
Rp6667
I1
tp6668
F0.0
s(g5142
I0
tp6669
F1.2378761891813048e-15
s(g4
((lp6670
(g23
I0
tp6671
a(g18
g429
tp6672
a(g6
g7
(g11
S'\x07\x00\x00\x00\x00\x00\x00\x00'
p6673
tp6674
Rp6675
tp6676
a(g25
I4
tp6677
a(g27
I0
tp6678
atp6679
Rp6680
I0
tp6681
F-0.48435277777777785
s(g2992
I0
tp6682
F2.038687586430438e-12
s(g747
I0
tp6683
F-0.11410634378731857
s(g5156
I0
tp6684
F0.13321700351729068
s(g5168
I1
tp6685
F0.0
s(g4
((lp6686
(g23
I0
tp6687
a(g18
g7
(g11
S'\x01\x00\x00\x00\x00\x00\x00\x00'
p6688
tp6689
Rp6690
tp6691
a(g25
I5
tp6692
a(g27
I1
tp6693
a(g6
g7
(g11
S'\x05\x00\x00\x00\x00\x00\x00\x00'
p6694
tp6695
Rp6696
tp6697
atp6698
Rp6699
I0
tp6700
F-0.07389161884467384
s(g4
((lp6701
(g6
g7
(g11
S'\xfb\xff\xff\xff\xff\xff\xff\xff'
p6702
tp6703
Rp6704
tp6705
a(g25
I4
tp6706
a(g18
g142
tp6707
a(g23
I1
tp6708
a(g27
I0
tp6709
atp6710
Rp6711
I0
tp6712
F-0.6040026666666667
s(g5182
I1
tp6713
F0.0
s(g777
I0
tp6714
F0.017535686371226926
s(g4
((lp6715
(g23
I0
tp6716
a(g18
g738
tp6717
a(g25
I9
tp6718
a(g6
I4
tp6719
a(g27
I0
tp6720
atp6721
Rp6722
I0
tp6723
F1.4201112169702047e-09
s(g4
((lp6724
(g18
g872
tp6725
a(g23
I1
tp6726
a(g25
I9
tp6727
a(g6
g7
(g11
S'\xf6\xff\xff\xff\xff\xff\xff\xff'
p6728
tp6729
Rp6730
tp6731
a(g27
I0
tp6732
atp6733
Rp6734
I0
tp6735
F-0.38333333333333336
s(g4
((lp6736
(g23
I0
tp6737
a(g18
g1237
tp6738
a(g27
I1
tp6739
a(g6
g7
(g11
S'\r\x00\x00\x00\x00\x00\x00\x00'
p6740
tp6741
Rp6742
tp6743
a(g25
I4
tp6744
atp6745
Rp6746
I1
tp6747
F0.0
s(g4
((lp6748
(g18
g1107
tp6749
a(g23
I1
tp6750
a(g6
g7
(g11
S'\xf8\xff\xff\xff\xff\xff\xff\xff'
p6751
tp6752
Rp6753
tp6754
a(g25
I6
tp6755
a(g27
I0
tp6756
atp6757
Rp6758
I1
tp6759
F-3.537153499520667e-06
s(g5194
I1
tp6760
F0.006835575963955407
s(g4
((lp6761
(g23
I0
tp6762
a(g18
g543
tp6763
a(g6
g7
(g11
S'\t\x00\x00\x00\x00\x00\x00\x00'
p6764
tp6765
Rp6766
tp6767
a(g25
I8
tp6768
a(g27
I0
tp6769
atp6770
Rp6771
I0
tp6772
F0.0
s(g4
((lp6773
(g18
g2559
tp6774
a(g25
I6
tp6775
a(g23
I1
tp6776
a(g6
g7
(g11
S'\xfd\xff\xff\xff\xff\xff\xff\xff'
p6777
tp6778
Rp6779
tp6780
a(g27
I0
tp6781
atp6782
Rp6783
I1
tp6784
F0.0
s(g4
((lp6785
(g23
I0
tp6786
a(g18
g5395
tp6787
a(g6
g7
(g11
S'\xfe\xff\xff\xff\xff\xff\xff\xff'
p6788
tp6789
Rp6790
tp6791
a(g25
I7
tp6792
a(g27
I0
tp6793
atp6794
Rp6795
I1
tp6796
F0.005793856666628503
s(g5207
I0
tp6797
F2.847664967520522e-14
s(g4
((lp6798
(g18
g2183
tp6799
a(g25
I9
tp6800
a(g23
I1
tp6801
a(g6
g7
(g11
S'\xfd\xff\xff\xff\xff\xff\xff\xff'
p6802
tp6803
Rp6804
tp6805
a(g27
I0
tp6806
atp6807
Rp6808
I0
tp6809
F0.0
s(g4
((lp6810
(g23
I0
tp6811
a(g18
g7
(g11
S'\x04\x00\x00\x00\x00\x00\x00\x00'
p6812
tp6813
Rp6814
tp6815
a(g6
g7
(g11
S'\x06\x00\x00\x00\x00\x00\x00\x00'
p6816
tp6817
Rp6818
tp6819
a(g25
I8
tp6820
a(g27
I0
tp6821
atp6822
Rp6823
I0
tp6824
F0.000261166133697948
s(g5220
I1
tp6825
F0.18781479359589942
s(g4
((lp6826
(g18
g5343
tp6827
a(g23
I1
tp6828
a(g6
g7
(g11
S'\xf9\xff\xff\xff\xff\xff\xff\xff'
p6829
tp6830
Rp6831
tp6832
a(g25
I6
tp6833
a(g27
I0
tp6834
atp6835
Rp6836
I0
tp6837
F0.0
s(g5233
I1
tp6838
F0.0
s(g4
((lp6839
(g23
I0
tp6840
a(g18
g2126
tp6841
a(g25
I-1
tp6842
a(g6
g7
(g11
S'\x05\x00\x00\x00\x00\x00\x00\x00'
p6843
tp6844
Rp6845
tp6846
a(g27
I0
tp6847
atp6848
Rp6849
I1
tp6850
F0.0
s(g4
((lp6851
(g6
g7
(g11
S'\xfb\xff\xff\xff\xff\xff\xff\xff'
p6852
tp6853
Rp6854
tp6855
a(g18
g1107
tp6856
a(g23
I1
tp6857
a(g25
I7
tp6858
a(g27
I0
tp6859
atp6860
Rp6861
I1
tp6862
F0.06731784937817636
s(g4
((lp6863
(g25
I4
tp6864
a(g18
g2559
tp6865
a(g23
I1
tp6866
a(g6
g7
(g11
S'\xfc\xff\xff\xff\xff\xff\xff\xff'
p6867
tp6868
Rp6869
tp6870
a(g27
I0
tp6871
atp6872
Rp6873
I0
tp6874
F-0.2833333333333333
s(g4
((lp6875
(g18
g1107
tp6876
a(g23
I1
tp6877
a(g6
g7
(g11
S'\xfe\xff\xff\xff\xff\xff\xff\xff'
p6878
tp6879
Rp6880
tp6881
a(g25
I9
tp6882
a(g27
I0
tp6883
atp6884
Rp6885
I0
tp6886
F0.040246862126300964
s(g5261
I1
tp6887
F0.0
s(g4
((lp6888
(g18
g2183
tp6889
a(g23
I1
tp6890
a(g25
I8
tp6891
a(g6
g7
(g11
S'\xfc\xff\xff\xff\xff\xff\xff\xff'
p6892
tp6893
Rp6894
tp6895
a(g27
I0
tp6896
atp6897
Rp6898
I0
tp6899
F-0.5233333333333333
s(g5286
I1
tp6900
F0.000820717708546798
s(g4
((lp6901
(g23
I0
tp6902
a(g25
I4
tp6903
a(g18
g528
tp6904
a(g27
I1
tp6905
a(g6
g7
(g11
S'\x00\x00\x00\x00\x00\x00\x00\x00'
p6906
tp6907
Rp6908
tp6909
atp6910
Rp6911
I1
tp6912
F0.0
s(g5312
I1
tp6913
F0.031155158991904085
s(g4
((lp6914
(g23
I0
tp6915
a(g6
g7
(g11
S'\x04\x00\x00\x00\x00\x00\x00\x00'
p6916
tp6917
Rp6918
tp6919
a(g18
g709
tp6920
a(g27
I1
tp6921
a(g25
I8
tp6922
atp6923
Rp6924
I1
tp6925
F1.024061359647233e-06
s(g4
((lp6926
(g23
I0
tp6927
a(g18
g582
tp6928
a(g25
I9
tp6929
a(g6
I5
tp6930
a(g27
I0
tp6931
atp6932
Rp6933
I0
tp6934
F0.0035208545261200454
s(g5482
I1
tp6935
F0.010782389939704878
s(g5337
I0
tp6936
F0.08098750646330666
s(g5352
I0
tp6937
F-0.4750000000000001
s(g5506
I0
tp6938
F0.018013034285699694
s(g5365
I0
tp6939
F0.017981409611334993
s(g4
((lp6940
(g18
g651
tp6941
a(g25
I-1
tp6942
a(g23
I1
tp6943
a(g6
g7
(g11
S'\xfc\xff\xff\xff\xff\xff\xff\xff'
p6944
tp6945
Rp6946
tp6947
a(g27
I0
tp6948
atp6949
Rp6950
I0
tp6951
F-0.5816666666666668
s(g5377
I0
tp6952
F0.007073593561484526
s(g4
((lp6953
(g23
I0
tp6954
a(g18
g69
tp6955
a(g25
I5
tp6956
a(g6
g7
(g11
S'\x00\x00\x00\x00\x00\x00\x00\x00'
p6957
tp6958
Rp6959
tp6960
a(g27
I0
tp6961
atp6962
Rp6963
I0
tp6964
F0.0008300796943051176
s(g5404
I0
tp6965
F0.04806373150170312
s(g4
((lp6966
(g23
I0
tp6967
a(g6
g7
(g11
S'\x04\x00\x00\x00\x00\x00\x00\x00'
p6968
tp6969
Rp6970
tp6971
a(g18
g7
(g11
S'\x04\x00\x00\x00\x00\x00\x00\x00'
p6972
tp6973
Rp6974
tp6975
a(g27
I1
tp6976
a(g25
I-1
tp6977
atp6978
Rp6979
I1
tp6980
F0.0
s(g5416
I1
tp6981
F0.0
s(g4
((lp6982
(g6
g7
(g11
S'\xfc\xff\xff\xff\xff\xff\xff\xff'
p6983
tp6984
Rp6985
tp6986
a(g18
g2097
tp6987
a(g23
I1
tp6988
a(g25
I-1
tp6989
a(g27
I0
tp6990
atp6991
Rp6992
I1
tp6993
F0.012922956367391178
s(g4
((lp6994
(g23
I0
tp6995
a(g18
g154
tp6996
a(g25
I6
tp6997
a(g6
g7
(g11
S'\x05\x00\x00\x00\x00\x00\x00\x00'
p6998
tp6999
Rp7000
tp7001
a(g27
I0
tp7002
atp7003
Rp7004
I1
tp7005
F0.0
s(g5453
I1
tp7006
F-0.004004
s(g4
((lp7007
(g18
g2687
tp7008
a(g23
I1
tp7009
a(g25
I8
tp7010
a(g6
g7
(g11
S'\xff\xff\xff\xff\xff\xff\xff\xff'
p7011
tp7012
Rp7013
tp7014
a(g27
I0
tp7015
atp7016
Rp7017
I0
tp7018
F0.050979240637377396
s(g4
((lp7019
(g23
I0
tp7020
a(g18
g179
tp7021
a(g6
g7
(g11
S'\xff\xff\xff\xff\xff\xff\xff\xff'
p7022
tp7023
Rp7024
tp7025
a(g25
I8
tp7026
a(g27
I0
tp7027
atp7028
Rp7029
I1
tp7030
F0.0
s(g4
((lp7031
(g23
I0
tp7032
a(g18
g3947
tp7033
a(g25
I6
tp7034
a(g27
I1
tp7035
a(g6
g7
(g11
S'\x08\x00\x00\x00\x00\x00\x00\x00'
p7036
tp7037
Rp7038
tp7039
atp7040
Rp7041
I1
tp7042
F-0.003262369956657888
s(g5494
I0
tp7043
F0.014110690703549075
s(g1456
I0
tp7044
F0.0036228950328047347
s(g5522
I1
tp7045
F0.0
s(g4
((lp7046
(g23
I0
tp7047
a(g18
g224
tp7048
a(g25
I5
tp7049
a(g6
g7
(g11
S'\xf9\xff\xff\xff\xff\xff\xff\xff'
p7050
tp7051
Rp7052
tp7053
a(g27
I0
tp7054
atp7055
Rp7056
I0
tp7057
F-0.024841227807671326
s(g5619
I1
tp7058
F0.06880374964206742
s(g2225
I0
tp7059
F0.0
s(g5550
I1
tp7060
F0.0
s(g5562
I1
tp7061
F0.01086775699573644
s(g4
((lp7062
(g23
I0
tp7063
a(g18
g651
tp7064
a(g25
I4
tp7065
a(g6
g7
(g11
S'\x03\x00\x00\x00\x00\x00\x00\x00'
p7066
tp7067
Rp7068
tp7069
a(g27
I0
tp7070
atp7071
Rp7072
I1
tp7073
F0.0
s(g5571
I0
tp7074
F0.03941466740525107
s(g4
((lp7075
(g18
g2902
tp7076
a(g23
I1
tp7077
a(g6
g7
(g11
S'\xf9\xff\xff\xff\xff\xff\xff\xff'
p7078
tp7079
Rp7080
tp7081
a(g25
I9
tp7082
a(g27
I0
tp7083
atp7084
Rp7085
I1
tp7086
F0.022397506688727288
s(g5588
I1
tp7087
F0.0
s(g3823
I0
tp7088
F0.01813511213017857
s(g4
((lp7089
(g18
g4362
tp7090
a(g23
I1
tp7091
a(g6
g7
(g11
S'\xf7\xff\xff\xff\xff\xff\xff\xff'
p7092
tp7093
Rp7094
tp7095
a(g25
I9
tp7096
a(g27
I0
tp7097
atp7098
Rp7099
I0
tp7100
F-0.41000000000000003
s(g2412
I1
tp7101
F0.0
s(g5856
I1
tp7102
F0.0
s(g4
((lp7103
(g18
g681
tp7104
a(g25
I-3
tp7105
a(g23
I1
tp7106
a(g6
g7
(g11
S'\xfc\xff\xff\xff\xff\xff\xff\xff'
p7107
tp7108
Rp7109
tp7110
a(g27
I0
tp7111
atp7112
Rp7113
I1
tp7114
F0.0
s(g5659
I0
tp7115
F0.11029083067661542
s(g4
((lp7116
(g23
I0
tp7117
a(g18
g459
tp7118
a(g6
g7
(g11
S'\x07\x00\x00\x00\x00\x00\x00\x00'
p7119
tp7120
Rp7121
tp7122
a(g27
I1
tp7123
a(g25
I7
tp7124
atp7125
Rp7126
I0
tp7127
F-2.8028515667752407e-06
s(g5674
I1
tp7128
F0.0
s(g6256
I1
tp7129
F0.0
s(g5689
I1
tp7130
F0.0
s(g5702
I0
tp7131
F0.0010521683305395923
s(g4
((lp7132
(g23
I0
tp7133
a(g18
g4442
tp7134
a(g25
I-3
tp7135
a(g27
I1
tp7136
a(g6
g7
(g11
S'\x01\x00\x00\x00\x00\x00\x00\x00'
p7137
tp7138
Rp7139
tp7140
atp7141
Rp7142
I1
tp7143
F0.0
s(g5728
I0
tp7144
F-9.856e-06
s(g4
((lp7145
(g23
I0
tp7146
a(g25
I4
tp7147
a(g18
g528
tp7148
a(g6
g7
(g11
S'\x01\x00\x00\x00\x00\x00\x00\x00'
p7149
tp7150
Rp7151
tp7152
a(g27
I0
tp7153
atp7154
Rp7155
I1
tp7156
F0.0
s(g4
((lp7157
(g18
g254
tp7158
a(g23
I1
tp7159
a(g25
I0
tp7160
a(g6
g7
(g11
S'\xff\xff\xff\xff\xff\xff\xff\xff'
p7161
tp7162
Rp7163
tp7164
a(g27
I0
tp7165
atp7166
Rp7167
I1
tp7168
F0.00030737997110309153
s(g4
((lp7169
(g23
I0
tp7170
a(g6
g7
(g11
S'\x04\x00\x00\x00\x00\x00\x00\x00'
p7171
tp7172
Rp7173
tp7174
a(g18
g6974
tp7175
a(g25
I-2
tp7176
a(g27
I0
tp7177
atp7178
Rp7179
I1
tp7180
F0.0
s(g6795
I0
tp7181
F0.07264356978283394
s(g4
((lp7182
(g23
I0
tp7183
a(g6
g7
(g11
S'\x03\x00\x00\x00\x00\x00\x00\x00'
p7184
tp7185
Rp7186
tp7187
a(g18
g2291
tp7188
a(g25
I8
tp7189
a(g27
I0
tp7190
atp7191
Rp7192
I1
tp7193
F0.0
s(g5779
I1
tp7194
F0.0
s(g4
((lp7195
(g23
I0
tp7196
a(g18
g681
tp7197
a(g25
I-3
tp7198
a(g6
g7
(g11
S'\xff\xff\xff\xff\xff\xff\xff\xff'
p7199
tp7200
Rp7201
tp7202
a(g27
I0
tp7203
atp7204
Rp7205
I0
tp7206
F3.279721656063906e-11
s(g5791
I0
tp7207
F0.09899547601571701
s(g4025
I1
tp7208
F0.0
s(g5804
I1
tp7209
F0.0
s(g4
((lp7210
(g23
I0
tp7211
a(g18
g7
(g11
S'\x04\x00\x00\x00\x00\x00\x00\x00'
p7212
tp7213
Rp7214
tp7215
a(g6
g7
(g11
S'\x02\x00\x00\x00\x00\x00\x00\x00'
p7216
tp7217
Rp7218
tp7219
a(g27
I1
tp7220
a(g25
I2
tp7221
atp7222
Rp7223
I1
tp7224
F0.0
s(g5816
I0
tp7225
F0.038417238660000554
s(g5828
I1
tp7226
F0.0005205518065915422
s(g4
((lp7227
(g23
I0
tp7228
a(g18
g240
tp7229
a(g6
g7
(g11
S'\t\x00\x00\x00\x00\x00\x00\x00'
p7230
tp7231
Rp7232
tp7233
a(g27
I1
tp7234
a(g25
I7
tp7235
atp7236
Rp7237
I0
tp7238
F-1.29329994508642e-06
s(g4
((lp7239
(g18
g1958
tp7240
a(g23
I1
tp7241
a(g6
g7
(g11
S'\xff\xff\xff\xff\xff\xff\xff\xff'
p7242
tp7243
Rp7244
tp7245
a(g25
I7
tp7246
a(g27
I0
tp7247
atp7248
Rp7249
I1
tp7250
F0.001970453943276418
s(g4226
I0
tp7251
F0.10581956549654117
s(g4
((lp7252
(g23
I0
tp7253
a(g18
g414
tp7254
a(g27
I1
tp7255
a(g25
I7
tp7256
a(g6
g7
(g11
S'\x04\x00\x00\x00\x00\x00\x00\x00'
p7257
tp7258
Rp7259
tp7260
atp7261
Rp7262
I1
tp7263
F-0.00014090673715298465
s(g4
((lp7264
(g23
I0
tp7265
a(g18
g738
tp7266
a(g25
I8
tp7267
a(g6
g7
(g11
S'\x04\x00\x00\x00\x00\x00\x00\x00'
p7268
tp7269
Rp7270
tp7271
a(g27
I0
tp7272
atp7273
Rp7274
I1
tp7275
F0.0
s(g4
((lp7276
(g23
I0
tp7277
a(g18
g357
tp7278
a(g25
I-2
tp7279
a(g6
g7
(g11
S'\x00\x00\x00\x00\x00\x00\x00\x00'
p7280
tp7281
Rp7282
tp7283
a(g27
I0
tp7284
atp7285
Rp7286
I1
tp7287
F0.0
s(g5869
I1
tp7288
F0.0
s(g5881
I0
tp7289
F0.029939149585164117
s(g4
((lp7290
(g23
I0
tp7291
a(g18
g7
(g11
S'\x04\x00\x00\x00\x00\x00\x00\x00'
p7292
tp7293
Rp7294
tp7295
a(g6
g7
(g11
S'\x02\x00\x00\x00\x00\x00\x00\x00'
p7296
tp7297
Rp7298
tp7299
a(g27
I1
tp7300
a(g25
I-3
tp7301
atp7302
Rp7303
I0
tp7304
F0.0015120290732951998
s(g5894
I1
tp7305
F0.0
s(g5906
I0
tp7306
F0.0
s(g4
((lp7307
(g18
g1958
tp7308
a(g23
I1
tp7309
a(g6
g7
(g11
S'\xfe\xff\xff\xff\xff\xff\xff\xff'
p7310
tp7311
Rp7312
tp7313
a(g25
I7
tp7314
a(g27
I0
tp7315
atp7316
Rp7317
I0
tp7318
F0.07585391865402533
s(g4
((lp7319
(g23
I0
tp7320
a(g18
g666
tp7321
a(g25
I6
tp7322
a(g6
g7
(g11
S'\x06\x00\x00\x00\x00\x00\x00\x00'
p7323
tp7324
Rp7325
tp7326
a(g27
I0
tp7327
atp7328
Rp7329
I1
tp7330
F-3.782058098594846e-08
s(g5931
I0
tp7331
F0.0
s(g5944
I0
tp7332
F0.009997515449198477
s(g4
((lp7333
(g23
I0
tp7334
a(g18
g1660
tp7335
a(g27
I1
tp7336
a(g25
I4
tp7337
a(g6
g7
(g11
S'\x03\x00\x00\x00\x00\x00\x00\x00'
p7338
tp7339
Rp7340
tp7341
atp7342
Rp7343
I0
tp7344
F-0.24333333333333335
s(g4
((lp7345
(g23
I0
tp7346
a(g18
g543
tp7347
a(g25
I4
tp7348
a(g6
g7
(g11
S'\x08\x00\x00\x00\x00\x00\x00\x00'
p7349
tp7350
Rp7351
tp7352
a(g27
I0
tp7353
atp7354
Rp7355
I1
tp7356
F-0.4709033333333333
s(g4
((lp7357
(g23
I0
tp7358
a(g18
g5513
tp7359
a(g25
I-3
tp7360
a(g6
g7
(g11
S'\x02\x00\x00\x00\x00\x00\x00\x00'
p7361
tp7362
Rp7363
tp7364
a(g27
I0
tp7365
atp7366
Rp7367
I0
tp7368
F6.318482258517281e-10
s(g6072
I0
tp7369
F-0.7858827944791938
s(g5980
I0
tp7370
F0.016925439111986955
s(g4
((lp7371
(g18
g681
tp7372
a(g23
I1
tp7373
a(g25
I0
tp7374
a(g6
g7
(g11
S'\xff\xff\xff\xff\xff\xff\xff\xff'
p7375
tp7376
Rp7377
tp7378
a(g27
I0
tp7379
atp7380
Rp7381
I0
tp7382
F1.1550026495405933e-29
s(g6004
I1
tp7383
F0.0
s(g4
((lp7384
(g23
I0
tp7385
a(g18
g459
tp7386
a(g25
I2
tp7387
a(g6
g7
(g11
S'\xfd\xff\xff\xff\xff\xff\xff\xff'
p7388
tp7389
Rp7390
tp7391
a(g27
I0
tp7392
atp7393
Rp7394
I0
tp7395
F0.01145898947296543
s(g4
((lp7396
(g23
I0
tp7397
a(g18
g240
tp7398
a(g25
I-1
tp7399
a(g27
I1
tp7400
a(g6
g7
(g11
S'\x03\x00\x00\x00\x00\x00\x00\x00'
p7401
tp7402
Rp7403
tp7404
atp7405
Rp7406
I0
tp7407
F1.1156912768406809e-14
s(g4
((lp7408
(g23
I0
tp7409
a(g6
g7
(g11
S'\x04\x00\x00\x00\x00\x00\x00\x00'
p7410
tp7411
Rp7412
tp7413
a(g18
g7
(g11
S'\x04\x00\x00\x00\x00\x00\x00\x00'
p7414
tp7415
Rp7416
tp7417
a(g27
I1
tp7418
a(g25
I3
tp7419
atp7420
Rp7421
I0
tp7422
F0.0
s(g6030
I1
tp7423
F0.0
s(g4
((lp7424
(g23
I0
tp7425
a(g18
g2559
tp7426
a(g6
g7
(g11
S'\xfe\xff\xff\xff\xff\xff\xff\xff'
p7427
tp7428
Rp7429
tp7430
a(g25
I0
tp7431
a(g27
I0
tp7432
atp7433
Rp7434
I0
tp7435
F9.597653610561385e-16
s(g4
((lp7436
(g23
I0
tp7437
a(g25
I4
tp7438
a(g18
g501
tp7439
a(g27
I1
tp7440
a(g6
g7
(g11
S'\x08\x00\x00\x00\x00\x00\x00\x00'
p7441
tp7442
Rp7443
tp7444
atp7445
Rp7446
I1
tp7447
F-0.05666666666666666
s(g6043
I1
tp7448
F0.0
s(g4
((lp7449
(g23
I0
tp7450
a(g18
g825
tp7451
a(g25
I6
tp7452
a(g6
g7
(g11
S'\x05\x00\x00\x00\x00\x00\x00\x00'
p7453
tp7454
Rp7455
tp7456
a(g27
I0
tp7457
atp7458
Rp7459
I0
tp7460
F-0.000316332556785657
s(g4
((lp7461
(g23
I0
tp7462
a(g18
g1958
tp7463
a(g25
I8
tp7464
a(g6
g7
(g11
S'\x00\x00\x00\x00\x00\x00\x00\x00'
p7465
tp7466
Rp7467
tp7468
a(g27
I0
tp7469
atp7470
Rp7471
I0
tp7472
F0.0485514464008378
s(g4
((lp7473
(g23
I0
tp7474
a(g18
g7
(g11
S'\x01\x00\x00\x00\x00\x00\x00\x00'
p7475
tp7476
Rp7477
tp7478
a(g25
I-3
tp7479
a(g27
I1
tp7480
a(g6
g7
(g11
S'\x06\x00\x00\x00\x00\x00\x00\x00'
p7481
tp7482
Rp7483
tp7484
atp7485
Rp7486
I1
tp7487
F0.0
s(g4
((lp7488
(g18
g2902
tp7489
a(g23
I1
tp7490
a(g25
I-2
tp7491
a(g6
g7
(g11
S'\xfd\xff\xff\xff\xff\xff\xff\xff'
p7492
tp7493
Rp7494
tp7495
a(g27
I0
tp7496
atp7497
Rp7498
I0
tp7499
F-0.32422004647449537
s(g4
((lp7500
(g23
I0
tp7501
a(g6
g7
(g11
S'\xfc\xff\xff\xff\xff\xff\xff\xff'
p7502
tp7503
Rp7504
tp7505
a(g18
g4362
tp7506
a(g25
I0
tp7507
a(g27
I0
tp7508
atp7509
Rp7510
I0
tp7511
F1.5727998548180886e-05
s(g6084
I0
tp7512
F0.3808791827326432
s(g4
((lp7513
(g23
I0
tp7514
a(g18
g214
tp7515
a(g6
g7
(g11
S'\xff\xff\xff\xff\xff\xff\xff\xff'
p7516
tp7517
Rp7518
tp7519
a(g25
I2
tp7520
a(g27
I0
tp7521
atp7522
Rp7523
I0
tp7524
F0.5095310529914987
s(g6109
I1
tp7525
F0.0
s(g6121
I1
tp7526
F0.0
s(g4
((lp7527
(g23
I0
tp7528
a(g18
g825
tp7529
a(g25
I5
tp7530
a(g6
g7
(g11
S'\x05\x00\x00\x00\x00\x00\x00\x00'
p7531
tp7532
Rp7533
tp7534
a(g27
I0
tp7535
atp7536
Rp7537
I1
tp7538
F-0.011718396500688956
s(g6133
I0
tp7539
F-0.5433333333333333
s(g4
((lp7540
(g23
I0
tp7541
a(g18
g651
tp7542
a(g6
g7
(g11
S'\x01\x00\x00\x00\x00\x00\x00\x00'
p7543
tp7544
Rp7545
tp7546
a(g25
I3
tp7547
a(g27
I0
tp7548
atp7549
Rp7550
I1
tp7551
F0.0
s(g6145
I1
tp7552
F0.0
s(g6244
I1
tp7553
F0.029670191212772937
s(g4
((lp7554
(g23
I0
tp7555
a(g18
g883
tp7556
a(g25
I6
tp7557
a(g6
g7
(g11
S'\xfe\xff\xff\xff\xff\xff\xff\xff'
p7558
tp7559
Rp7560
tp7561
a(g27
I0
tp7562
atp7563
Rp7564
I1
tp7565
F0.0
s(g7249
I0
tp7566
F0.07222070174073432
s(g6171
I1
tp7567
F0.0
s(g4
((lp7568
(g23
I0
tp7569
a(g25
I1
tp7570
a(g18
g1943
tp7571
a(g6
g7
(g11
S'\x02\x00\x00\x00\x00\x00\x00\x00'
p7572
tp7573
Rp7574
tp7575
a(g27
I0
tp7576
atp7577
Rp7578
I1
tp7579
F0.0
s(g1681
I0
tp7580
F0.0055595766833338904
s(g6196
I0
tp7581
F0.4917812123829705
s(g6184
I0
tp7582
F0.009278924865253361
s(g6220
I0
tp7583
F-0.48333333333333334
s(g4
((lp7584
(g23
I0
tp7585
a(g18
g297
tp7586
a(g6
g7
(g11
S'\xfa\xff\xff\xff\xff\xff\xff\xff'
p7587
tp7588
Rp7589
tp7590
a(g25
I7
tp7591
a(g27
I0
tp7592
atp7593
Rp7594
I0
tp7595
F0.0
s(g6280
I0
tp7596
F0.0338927713520804
s(g6292
I0
tp7597
F-0.0007636456310401685
s(g4
((lp7598
(g18
g825
tp7599
a(g23
I1
tp7600
a(g25
I5
tp7601
a(g6
g7
(g11
S'\xfd\xff\xff\xff\xff\xff\xff\xff'
p7602
tp7603
Rp7604
tp7605
a(g27
I0
tp7606
atp7607
Rp7608
I1
tp7609
F0.0
s(g6305
I1
tp7610
F3.517632053600975e-20
s(g6373
I1
tp7611
F0.0
s(g4
((lp7612
(g6
g7
(g11
S'\xfb\xff\xff\xff\xff\xff\xff\xff'
p7613
tp7614
Rp7615
tp7616
a(g18
g297
tp7617
a(g23
I1
tp7618
a(g25
I4
tp7619
a(g27
I0
tp7620
atp7621
Rp7622
I1
tp7623
F-0.3968887778939101
s(g6318
I0
tp7624
F0.41119119967530754
s(g6331
I0
tp7625
F0.0
s(g4
((lp7626
(g23
I0
tp7627
a(g18
g883
tp7628
a(g6
g7
(g11
S'\x01\x00\x00\x00\x00\x00\x00\x00'
p7629
tp7630
Rp7631
tp7632
a(g25
I-1
tp7633
a(g27
I0
tp7634
atp7635
Rp7636
I0
tp7637
F3.461996690889048e-14
s(g4
((lp7638
(g18
g2559
tp7639
a(g23
I1
tp7640
a(g25
I7
tp7641
a(g6
g7
(g11
S'\xfd\xff\xff\xff\xff\xff\xff\xff'
p7642
tp7643
Rp7644
tp7645
a(g27
I0
tp7646
atp7647
Rp7648
I0
tp7649
F9.601841067148141e-09
s(g7072
I0
tp7650
F5.3952129566678595e-05
s(g7099
I1
tp7651
F0.0010048691892657602
s(g6412
I1
tp7652
F0.0
s(g4
((lp7653
(g18
g1273
tp7654
a(g23
I1
tp7655
a(g6
g7
(g11
S'\xfa\xff\xff\xff\xff\xff\xff\xff'
p7656
tp7657
Rp7658
tp7659
a(g25
I9
tp7660
a(g27
I0
tp7661
atp7662
Rp7663
I0
tp7664
F-0.3933332404936654
s(g4
((lp7665
(g23
I0
tp7666
a(g25
I3
tp7667
a(g18
g582
tp7668
a(g6
g7
(g11
S'\xfe\xff\xff\xff\xff\xff\xff\xff'
p7669
tp7670
Rp7671
tp7672
a(g27
I0
tp7673
atp7674
Rp7675
I0
tp7676
F0.36389524964069264
s(g4949
I0
tp7677
F0.0006557668144917968
s(g4
((lp7678
(g18
g80
tp7679
a(g23
I1
tp7680
a(g6
g7
(g11
S'\xfa\xff\xff\xff\xff\xff\xff\xff'
p7681
tp7682
Rp7683
tp7684
a(g25
I7
tp7685
a(g27
I0
tp7686
atp7687
Rp7688
I1
tp7689
F0.0
s(g6097
I1
tp7690
F0.0
s(g4
((lp7691
(g25
I8
tp7692
a(g18
g2902
tp7693
a(g23
I1
tp7694
a(g6
g7
(g11
S'\xf7\xff\xff\xff\xff\xff\xff\xff'
p7695
tp7696
Rp7697
tp7698
a(g27
I0
tp7699
atp7700
Rp7701
I0
tp7702
F-0.5283333333333333
s(g6385
I0
tp7703
F7.648849417419505e-10
s(g4
((lp7704
(g23
I0
tp7705
a(g6
g7
(g11
S'\x03\x00\x00\x00\x00\x00\x00\x00'
p7706
tp7707
Rp7708
tp7709
a(g18
g7
(g11
S'\x04\x00\x00\x00\x00\x00\x00\x00'
p7710
tp7711
Rp7712
tp7713
a(g27
I1
tp7714
a(g25
I6
tp7715
atp7716
Rp7717
I0
tp7718
F0.004077564236006024
s(g4
((lp7719
(g23
I0
tp7720
a(g18
g7
(g11
S'\x01\x00\x00\x00\x00\x00\x00\x00'
p7721
tp7722
Rp7723
tp7724
a(g27
I1
tp7725
a(g25
I8
tp7726
a(g6
g7
(g11
S'\x06\x00\x00\x00\x00\x00\x00\x00'
p7727
tp7728
Rp7729
tp7730
atp7731
Rp7732
I0
tp7733
F-0.00193967335318871
s(g6399
I1
tp7734
F0.0
s(g7406
I1
tp7735
F0.0
s(g4
((lp7736
(g23
I0
tp7737
a(g18
g681
tp7738
a(g25
I-1
tp7739
a(g6
g7
(g11
S'\x02\x00\x00\x00\x00\x00\x00\x00'
p7740
tp7741
Rp7742
tp7743
a(g27
I1
tp7744
atp7745
Rp7746
I0
tp7747
F4.844423678946361e-14
s(g6424
I0
tp7748
F0.0005144822422902449
s(g4
((lp7749
(g23
I0
tp7750
a(g25
I8
tp7751
a(g18
g1781
tp7752
a(g27
I1
tp7753
a(g6
g7
(g11
S'\x01\x00\x00\x00\x00\x00\x00\x00'
p7754
tp7755
Rp7756
tp7757
atp7758
Rp7759
I0
tp7760
F0.036245990515758435
s(g6436
I0
tp7761
F0.08078797653864835
s(g7675
I1
tp7762
F0.09354259132061993
s(g5764
I1
tp7763
F0.0
s(g4
((lp7764
(g23
I0
tp7765
a(g18
g444
tp7766
a(g6
g7
(g11
S'\x02\x00\x00\x00\x00\x00\x00\x00'
p7767
tp7768
Rp7769
tp7770
a(g27
I1
tp7771
a(g25
I3
tp7772
atp7773
Rp7774
I1
tp7775
F0.0
s(g6449
I1
tp7776
F0.0
s(g3733
I1
tp7777
F0.0
s(g6462
I0
tp7778
F-0.0014935674902612505
s(g4
((lp7779
(g23
I0
tp7780
a(g18
g1312
tp7781
a(g25
I-2
tp7782
a(g27
I1
tp7783
a(g6
g7
(g11
S'\x08\x00\x00\x00\x00\x00\x00\x00'
p7784
tp7785
Rp7786
tp7787
atp7788
Rp7789
I0
tp7790
F0.0
s(g2592
I0
tp7791
F2.9892423996257725e-05
s(g6476
I0
tp7792
F-0.55
s(g6488
I0
tp7793
F0.0
s(g6501
I1
tp7794
F0.0
s(g4
((lp7795
(g23
I0
tp7796
a(g18
g2183
tp7797
a(g25
I-2
tp7798
a(g6
g7
(g11
S'\xfd\xff\xff\xff\xff\xff\xff\xff'
p7799
tp7800
Rp7801
tp7802
a(g27
I0
tp7803
atp7804
Rp7805
I0
tp7806
F1.4558561701403755e-12
s(g4
((lp7807
(g6
g7
(g11
S'\xfc\xff\xff\xff\xff\xff\xff\xff'
p7808
tp7809
Rp7810
tp7811
a(g18
g254
tp7812
a(g23
I1
tp7813
a(g25
I-2
tp7814
a(g27
I0
tp7815
atp7816
Rp7817
I1
tp7818
F0.015669399241913545
s(g6515
I1
tp7819
F0.0
s(g4
((lp7820
(g23
I0
tp7821
a(g6
g7
(g11
S'\x07\x00\x00\x00\x00\x00\x00\x00'
p7822
tp7823
Rp7824
tp7825
a(g18
g7
(g11
S'\x04\x00\x00\x00\x00\x00\x00\x00'
p7826
tp7827
Rp7828
tp7829
a(g27
I1
tp7830
a(g25
I4
tp7831
atp7832
Rp7833
I0
tp7834
F-0.07583333333333335
s(g7789
I1
tp7835
F0.0
s(g6546
I0
tp7836
F0.0
s(g4
((lp7837
(g18
g2291
tp7838
a(g23
I1
tp7839
a(g6
g7
(g11
S'\xfe\xff\xff\xff\xff\xff\xff\xff'
p7840
tp7841
Rp7842
tp7843
a(g25
I5
tp7844
a(g27
I0
tp7845
atp7846
Rp7847
I0
tp7848
F0.15607424772705084
s(g6573
I1
tp7849
F0.03920426874218712
s(g6588
I0
tp7850
F-0.12666666666666665
s(g4
((lp7851
(g23
I0
tp7852
a(g18
g5638
tp7853
a(g6
g7
(g11
S'\xff\xff\xff\xff\xff\xff\xff\xff'
p7854
tp7855
Rp7856
tp7857
a(g25
I5
tp7858
a(g27
I0
tp7859
atp7860
Rp7861
I1
tp7862
F0.028335525581743425
s(g3696
I0
tp7863
F0.050112880642855614
s(g6602
I0
tp7864
F-0.5333333333333333
s(g6615
I0
tp7865
F0.00011282401054151057
s(g4
((lp7866
(g23
I0
tp7867
a(g18
g1070
tp7868
a(g25
I-1
tp7869
a(g27
I1
tp7870
a(g6
g7
(g11
S'\x01\x00\x00\x00\x00\x00\x00\x00'
p7871
tp7872
Rp7873
tp7874
atp7875
Rp7876
I1
tp7877
F0.0
s(g6628
I0
tp7878
F0.8743243904721653
s(g4
((lp7879
(g23
I0
tp7880
a(g18
g5542
tp7881
a(g27
I1
tp7882
a(g6
g7
(g11
S'\x01\x00\x00\x00\x00\x00\x00\x00'
p7883
tp7884
Rp7885
tp7886
a(g25
I6
tp7887
atp7888
Rp7889
I0
tp7890
F0.06861852377689365
s(g6641
I1
tp7891
F0.0
s(g6653
I0
tp7892
F4.215284707098914e-12
s(g6667
I0
tp7893
F0.000598784237675803
s(g4
((lp7894
(g25
I1
tp7895
a(g18
g582
tp7896
a(g23
I1
tp7897
a(g6
g7
(g11
S'\xfd\xff\xff\xff\xff\xff\xff\xff'
p7898
tp7899
Rp7900
tp7901
a(g27
I0
tp7902
atp7903
Rp7904
I1
tp7905
F0.874529906165639
s(g6680
I1
tp7906
F-0.49225375000000005
s(g6699
I1
tp7907
F-0.07686616089768109
s(g6711
I1
tp7908
F-0.5078154233333333
s(g6722
I1
tp7909
F0.0
s(g6734
I1
tp7910
F1.6358355806073184e-05
s(g6746
I0
tp7911
F0.0
s(g6758
I0
tp7912
F-6.859861915709687e-06
s(g4
((lp7913
(g23
I0
tp7914
a(g18
g297
tp7915
a(g25
I-1
tp7916
a(g6
g7
(g11
S'\xfa\xff\xff\xff\xff\xff\xff\xff'
p7917
tp7918
Rp7919
tp7920
a(g27
I0
tp7921
atp7922
Rp7923
I1
tp7924
F0.0
s(g4
((lp7925
(g23
I0
tp7926
a(g18
g3346
tp7927
a(g6
g7
(g11
S'\x02\x00\x00\x00\x00\x00\x00\x00'
p7928
tp7929
Rp7930
tp7931
a(g25
I7
tp7932
a(g27
I0
tp7933
atp7934
Rp7935
I0
tp7936
F9.572888028033682e-06
s(g6771
I1
tp7937
F0.0
s(g5300
I0
tp7938
F-0.5683333333333334
s(g4
((lp7939
(g18
g326
tp7940
a(g23
I1
tp7941
a(g6
g7
(g11
S'\xff\xff\xff\xff\xff\xff\xff\xff'
p7942
tp7943
Rp7944
tp7945
a(g25
I9
tp7946
a(g27
I0
tp7947
atp7948
Rp7949
I0
tp7950
F0.04071633118114662
s(g6783
I0
tp7951
F2.8024034889330597e-06
s(g7805
I1
tp7952
F0.0
s(g4
((lp7953
(g23
I0
tp7954
a(g18
g240
tp7955
a(g6
g7
(g11
S'\t\x00\x00\x00\x00\x00\x00\x00'
p7956
tp7957
Rp7958
tp7959
a(g25
I4
tp7960
a(g27
I0
tp7961
atp7962
Rp7963
I0
tp7964
F-0.29583333333333334
s(g4
((lp7965
(g23
I0
tp7966
a(g18
g2559
tp7967
a(g25
I9
tp7968
a(g6
g7
(g11
S'\xfd\xff\xff\xff\xff\xff\xff\xff'
p7969
tp7970
Rp7971
tp7972
a(g27
I0
tp7973
atp7974
Rp7975
I1
tp7976
F0.0
s(g6808
I1
tp7977
F0.0
s(g6823
I1
tp7978
F0.0
s(g4
((lp7979
(g23
I0
tp7980
a(g18
g738
tp7981
a(g27
I1
tp7982
a(g25
I2
tp7983
a(g6
g7
(g11
S'\x03\x00\x00\x00\x00\x00\x00\x00'
p7984
tp7985
Rp7986
tp7987
atp7988
Rp7989
I1
tp7990
F-0.32939097222222224
s(g6836
I1
tp7991
F0.0
s(g4567
I0
tp7992
F0.007055675576585033
s(g4
((lp7993
(g23
I0
tp7994
a(g18
g297
tp7995
a(g6
g7
(g11
S'\xfb\xff\xff\xff\xff\xff\xff\xff'
p7996
tp7997
Rp7998
tp7999
a(g25
I6
tp8000
a(g27
I0
tp8001
atp8002
Rp8003
I0
tp8004
F5.020813144632155e-10
s(g2135
I0
tp8005
F0.0
s(g2724
I0
tp8006
F0.0
s(g6861
I0
tp8007
F-0.5133333333333333
s(g4
((lp8008
(g23
I0
tp8009
a(g18
g651
tp8010
a(g6
g7
(g11
S'\x01\x00\x00\x00\x00\x00\x00\x00'
p8011
tp8012
Rp8013
tp8014
a(g25
I2
tp8015
a(g27
I0
tp8016
atp8017
Rp8018
I0
tp8019
F0.027934532476980523
s(g6873
I1
tp8020
F0.00150232731385244
s(g4
((lp8021
(g23
I0
tp8022
a(g6
g7
(g11
S'\x03\x00\x00\x00\x00\x00\x00\x00'
p8023
tp8024
Rp8025
tp8026
a(g18
g154
tp8027
a(g25
I5
tp8028
a(g27
I0
tp8029
atp8030
Rp8031
I0
tp8032
F0.07482687087684334
s(g4
((lp8033
(g23
I0
tp8034
a(g18
g5665
tp8035
a(g6
g7
(g11
S'\xff\xff\xff\xff\xff\xff\xff\xff'
p8036
tp8037
Rp8038
tp8039
a(g25
I-2
tp8040
a(g27
I0
tp8041
atp8042
Rp8043
I1
tp8044
F0.0
s(g6898
I1
tp8045
F1.158432711310449e-11
s(g4
((lp8046
(g23
I0
tp8047
a(g18
g5665
tp8048
a(g6
g7
(g11
S'\x02\x00\x00\x00\x00\x00\x00\x00'
p8049
tp8050
Rp8051
tp8052
a(g25
I0
tp8053
a(g27
I0
tp8054
atp8055
Rp8056
I0
tp8057
F0.004707253163750123
s(g6924
I0
tp8058
F0.011801985176126267
s(g4
((lp8059
(g18
g681
tp8060
a(g6
g7
(g11
S'\xf9\xff\xff\xff\xff\xff\xff\xff'
p8061
tp8062
Rp8063
tp8064
a(g23
I1
tp8065
a(g25
I8
tp8066
a(g27
I0
tp8067
atp8068
Rp8069
I1
tp8070
F0.0
s(g6933
I1
tp8071
F0.0
s(g7041
I0
tp8072
F-0.12148225086641498
s(g4
((lp8073
(g23
I0
tp8074
a(g18
g709
tp8075
a(g6
g7
(g11
S'\x02\x00\x00\x00\x00\x00\x00\x00'
p8076
tp8077
Rp8078
tp8079
a(g27
I1
tp8080
a(g25
I1
tp8081
atp8082
Rp8083
I0
tp8084
F0.8237035397518152
s(g4
((lp8085
(g23
I0
tp8086
a(g18
g883
tp8087
a(g6
g7
(g11
S'\xfe\xff\xff\xff\xff\xff\xff\xff'
p8088
tp8089
Rp8090
tp8091
a(g25
I7
tp8092
a(g27
I0
tp8093
atp8094
Rp8095
I0
tp8096
F1.2257453005615388e-07
s(g4
((lp8097
(g6
g7
(g11
S'\xfb\xff\xff\xff\xff\xff\xff\xff'
p8098
tp8099
Rp8100
tp8101
a(g18
g883
tp8102
a(g23
I1
tp8103
a(g25
I5
tp8104
a(g27
I0
tp8105
atp8106
Rp8107
I0
tp8108
F-0.3817250000000001
s(g6950
I1
tp8109
F1.098558052547961e-18
s(g6963
I1
tp8110
F0.0
s(g2912
I1
tp8111
F0.006554050741922571
s(g6979
I0
tp8112
F1.049918866970751e-09
s(g4
((lp8113
(g23
I0
tp8114
a(g18
g651
tp8115
a(g6
g7
(g11
S'\x02\x00\x00\x00\x00\x00\x00\x00'
p8116
tp8117
Rp8118
tp8119
a(g25
I4
tp8120
a(g27
I0
tp8121
atp8122
Rp8123
I1
tp8124
F4.067796915492264e-12
s(g4
((lp8125
(g23
I0
tp8126
a(g18
g3519
tp8127
a(g25
I7
tp8128
a(g6
g7
(g11
S'\x00\x00\x00\x00\x00\x00\x00\x00'
p8129
tp8130
Rp8131
tp8132
a(g27
I0
tp8133
atp8134
Rp8135
I0
tp8136
F1.0999054534464134e-05
s(g6208
I1
tp8137
F0.0
s(g7004
I0
tp8138
F0.0013978641173950427
s(g4
((lp8139
(g18
g1984
tp8140
a(g23
I1
tp8141
a(g25
I7
tp8142
a(g6
g7
(g11
S'\xf6\xff\xff\xff\xff\xff\xff\xff'
p8143
tp8144
Rp8145
tp8146
a(g27
I0
tp8147
atp8148
Rp8149
I1
tp8150
F0.0
s(g4
((lp8151
(g23
I0
tp8152
a(g18
g1420
tp8153
a(g25
I6
tp8154
a(g6
g7
(g11
S'\xfa\xff\xff\xff\xff\xff\xff\xff'
p8155
tp8156
Rp8157
tp8158
a(g27
I0
tp8159
atp8160
Rp8161
I1
tp8162
F0.0
s(g4
((lp8163
(g6
g7
(g11
S'\xfb\xff\xff\xff\xff\xff\xff\xff'
p8164
tp8165
Rp8166
tp8167
a(g18
g767
tp8168
a(g23
I1
tp8169
a(g25
I9
tp8170
a(g27
I0
tp8171
atp8172
Rp8173
I1
tp8174
F0.036656730167451766
s(g4
((lp8175
(g23
I0
tp8176
a(g18
g179
tp8177
a(g25
I6
tp8178
a(g27
I1
tp8179
a(g6
g7
(g11
S'\x03\x00\x00\x00\x00\x00\x00\x00'
p8180
tp8181
Rp8182
tp8183
atp8184
Rp8185
I1
tp8186
F-8.46210463674781e-06
s(g4
((lp8187
(g23
I0
tp8188
a(g18
g2902
tp8189
a(g25
I0
tp8190
a(g6
g7
(g11
S'\xfd\xff\xff\xff\xff\xff\xff\xff'
p8191
tp8192
Rp8193
tp8194
a(g27
I0
tp8195
atp8196
Rp8197
I1
tp8198
F2.2422217242725782e-05
s(g4
((lp8199
(g18
g1107
tp8200
a(g23
I1
tp8201
a(g6
g7
(g11
S'\xff\xff\xff\xff\xff\xff\xff\xff'
p8202
tp8203
Rp8204
tp8205
a(g25
I2
tp8206
a(g27
I0
tp8207
atp8208
Rp8209
I1
tp8210
F0.04777974720332574
s(g4
((lp8211
(g25
I5
tp8212
a(g18
g51
tp8213
a(g23
I1
tp8214
a(g6
g7
(g11
S'\xf6\xff\xff\xff\xff\xff\xff\xff'
p8215
tp8216
Rp8217
tp8218
a(g27
I0
tp8219
atp8220
Rp8221
I0
tp8222
F0.0
s(g7056
I1
tp8223
F-0.022297424826497107
s(g4
((lp8224
(g25
I3
tp8225
a(g18
g7
(g11
S'\x04\x00\x00\x00\x00\x00\x00\x00'
p8226
tp8227
Rp8228
tp8229
a(g23
I1
tp8230
a(g6
g7
(g11
S'\xfd\xff\xff\xff\xff\xff\xff\xff'
p8231
tp8232
Rp8233
tp8234
a(g27
I0
tp8235
atp8236
Rp8237
I1
tp8238
F0.29481554099235385
s(g3903
I1
tp8239
F0.0
s(g4
((lp8240
(g23
I0
tp8241
a(g6
g7
(g11
S'\xfb\xff\xff\xff\xff\xff\xff\xff'
p8242
tp8243
Rp8244
tp8245
a(g18
g767
tp8246
a(g25
I-2
tp8247
a(g27
I0
tp8248
atp8249
Rp8250
I1
tp8251
F0.0
s(g7085
I0
tp8252
F-0.4683333333333334
s(g4
((lp8253
(g18
g3253
tp8254
a(g25
I-3
tp8255
a(g23
I1
tp8256
a(g6
g7
(g11
S'\xfe\xff\xff\xff\xff\xff\xff\xff'
p8257
tp8258
Rp8259
tp8260
a(g27
I0
tp8261
atp8262
Rp8263
I1
tp8264
F0.0
s(g4
((lp8265
(g23
I0
tp8266
a(g6
g7
(g11
S'\x03\x00\x00\x00\x00\x00\x00\x00'
p8267
tp8268
Rp8269
tp8270
a(g18
g130
tp8271
a(g27
I1
tp8272
a(g25
I-1
tp8273
atp8274
Rp8275
I0
tp8276
F1.6733190604494465e-05
s(g4
((lp8277
(g23
I0
tp8278
a(g18
g1174
tp8279
a(g27
I1
tp8280
a(g25
I7
tp8281
a(g6
g7
(g11
S'\x0c\x00\x00\x00\x00\x00\x00\x00'
p8282
tp8283
Rp8284
tp8285
atp8286
Rp8287
I1
tp8288
F0.0
s(g4
((lp8289
(g23
I0
tp8290
a(g18
g357
tp8291
a(g25
I9
tp8292
a(g6
g7
(g11
S'\xfc\xff\xff\xff\xff\xff\xff\xff'
p8293
tp8294
Rp8295
tp8296
a(g27
I0
tp8297
atp8298
Rp8299
I0
tp8300
F3.3644831139160395e-12
s(g4410
I0
tp8301
F0.005186690352812105
s(g2832
I1
tp8302
F-0.00022814393868641979
s(g4
((lp8303
(g25
I3
tp8304
a(g18
g7
(g11
S'\x04\x00\x00\x00\x00\x00\x00\x00'
p8305
tp8306
Rp8307
tp8308
a(g23
I1
tp8309
a(g6
g7
(g11
S'\xfe\xff\xff\xff\xff\xff\xff\xff'
p8310
tp8311
Rp8312
tp8313
a(g27
I0
tp8314
atp8315
Rp8316
I1
tp8317
F0.34498352757467854
s(g7113
I0
tp8318
F0.0
s(g4
((lp8319
(g23
I0
tp8320
a(g18
g69
tp8321
a(g6
g7
(g11
S'\x01\x00\x00\x00\x00\x00\x00\x00'
p8322
tp8323
Rp8324
tp8325
a(g25
I7
tp8326
a(g27
I0
tp8327
atp8328
Rp8329
I1
tp8330
F0.0
s(g7126
I1
tp8331
F-8.292203449300392e-06
s(g4
((lp8332
(g23
I0
tp8333
a(g25
I3
tp8334
a(g18
g254
tp8335
a(g27
I1
tp8336
a(g6
g7
(g11
S'\x00\x00\x00\x00\x00\x00\x00\x00'
p8337
tp8338
Rp8339
tp8340
atp8341
Rp8342
I0
tp8343
F0.380763067023552
s(g4
((lp8344
(g23
I0
tp8345
a(g6
g7
(g11
S'\x07\x00\x00\x00\x00\x00\x00\x00'
p8346
tp8347
Rp8348
tp8349
a(g18
g387
tp8350
a(g27
I1
tp8351
a(g25
I6
tp8352
atp8353
Rp8354
I0
tp8355
F0.0
s(g4
((lp8356
(g23
I0
tp8357
a(g6
g7
(g11
S'\xfc\xff\xff\xff\xff\xff\xff\xff'
p8358
tp8359
Rp8360
tp8361
a(g18
g528
tp8362
a(g25
I8
tp8363
a(g27
I0
tp8364
atp8365
Rp8366
I0
tp8367
F0.04781545238344244
s(g4
((lp8368
(g23
I0
tp8369
a(g18
g709
tp8370
a(g27
I1
tp8371
a(g6
g7
(g11
S'\x00\x00\x00\x00\x00\x00\x00\x00'
p8372
tp8373
Rp8374
tp8375
a(g25
I7
tp8376
atp8377
Rp8378
I1
tp8379
F0.0
s(g7142
I0
tp8380
F0.0030150553824970063
s(g4
((lp8381
(g23
I0
tp8382
a(g25
I3
tp8383
a(g18
g111
tp8384
a(g27
I1
tp8385
a(g6
g7
(g11
S'\x01\x00\x00\x00\x00\x00\x00\x00'
p8386
tp8387
Rp8388
tp8389
atp8390
Rp8391
I1
tp8392
F0.0
s(g7155
I0
tp8393
F0.24573839351942164
s(g7167
I0
tp8394
F0.007786936887206011
s(g4
((lp8395
(g23
I0
tp8396
a(g18
g224
tp8397
a(g6
g7
(g11
S'\xf8\xff\xff\xff\xff\xff\xff\xff'
p8398
tp8399
Rp8400
tp8401
a(g25
I6
tp8402
a(g27
I0
tp8403
atp8404
Rp8405
I0
tp8406
F-3.670612318158042e-06
s(g5992
I0
tp8407
F0.0
s(g4
((lp8408
(g23
I0
tp8409
a(g18
g1107
tp8410
a(g25
I5
tp8411
a(g6
g7
(g11
S'\xfd\xff\xff\xff\xff\xff\xff\xff'
p8412
tp8413
Rp8414
tp8415
a(g27
I0
tp8416
atp8417
Rp8418
I0
tp8419
F0.16319368194095585
s(g7192
I0
tp8420
F0.041478049180131524
s(g7861
I0
tp8421
F0.1669139407560712
s(g5389
I1
tp8422
F0.0
s(g5428
I0
tp8423
F-0.17833333333333334
s(g3645
I1
tp8424
F0.0
s(g7223
I0
tp8425
F0.2553459456162212
s(g4
((lp8426
(g18
g1107
tp8427
a(g23
I1
tp8428
a(g25
I8
tp8429
a(g6
g7
(g11
S'\xfd\xff\xff\xff\xff\xff\xff\xff'
p8430
tp8431
Rp8432
tp8433
a(g27
I0
tp8434
atp8435
Rp8436
I0
tp8437
F-0.45534653456821284
s(g4
((lp8438
(g18
g825
tp8439
a(g23
I1
tp8440
a(g25
I8
tp8441
a(g6
g7
(g11
S'\xff\xff\xff\xff\xff\xff\xff\xff'
p8442
tp8443
Rp8444
tp8445
a(g27
I0
tp8446
atp8447
Rp8448
I1
tp8449
F0.0
s(g5647
I1
tp8450
F0.008403789938116211
s(g7343
I1
tp8451
F-0.332495
s(g4
((lp8452
(g23
I0
tp8453
a(g6
g7
(g11
S'\xfc\xff\xff\xff\xff\xff\xff\xff'
p8454
tp8455
Rp8456
tp8457
a(g18
g767
tp8458
a(g25
I-3
tp8459
a(g27
I0
tp8460
atp8461
Rp8462
I1
tp8463
F0.0
s(g4
((lp8464
(g6
g7
(g11
S'\xfb\xff\xff\xff\xff\xff\xff\xff'
p8465
tp8466
Rp8467
tp8468
a(g25
I1
tp8469
a(g18
g1513
tp8470
a(g23
I1
tp8471
a(g27
I0
tp8472
atp8473
Rp8474
I1
tp8475
F0.0
s(g7262
I0
tp8476
F-0.00018124747860812695
s(g7274
I0
tp8477
F1.602772347518648e-08
s(g7286
I0
tp8478
F1.5232867855188708e-11
s(g7303
I1
tp8479
F0.0
s(g4
((lp8480
(g23
I0
tp8481
a(g18
g179
tp8482
a(g25
I3
tp8483
a(g6
g7
(g11
S'\x03\x00\x00\x00\x00\x00\x00\x00'
p8484
tp8485
Rp8486
tp8487
a(g27
I0
tp8488
atp8489
Rp8490
I0
tp8491
F3.4325140368627814e-05
s(g5918
I0
tp8492
F-0.008946666666666667
s(g4
((lp8493
(g23
I0
tp8494
a(g6
g7
(g11
S'\xfc\xff\xff\xff\xff\xff\xff\xff'
p8495
tp8496
Rp8497
tp8498
a(g18
g7
(g11
S'\x04\x00\x00\x00\x00\x00\x00\x00'
p8499
tp8500
Rp8501
tp8502
a(g25
I1
tp8503
a(g27
I0
tp8504
atp8505
Rp8506
I1
tp8507
F0.0
s(g4
((lp8508
(g18
g1958
tp8509
a(g23
I1
tp8510
a(g25
I6
tp8511
a(g6
g7
(g11
S'\xfd\xff\xff\xff\xff\xff\xff\xff'
p8512
tp8513
Rp8514
tp8515
a(g27
I0
tp8516
atp8517
Rp8518
I0
tp8519
F-0.4443725844489787
s(g7329
I0
tp8520
F-1.1991292500178124e-05
s(g4
((lp8521
(g23
I0
tp8522
a(g6
g7
(g11
S'\x04\x00\x00\x00\x00\x00\x00\x00'
p8523
tp8524
Rp8525
tp8526
a(g18
g130
tp8527
a(g25
I4
tp8528
a(g27
I0
tp8529
atp8530
Rp8531
I0
tp8532
F-0.26683641897450483
s(g4
((lp8533
(g23
I0
tp8534
a(g18
g2779
tp8535
a(g25
I5
tp8536
a(g27
I1
tp8537
a(g6
g7
(g11
S'\x05\x00\x00\x00\x00\x00\x00\x00'
p8538
tp8539
Rp8540
tp8541
atp8542
Rp8543
I1
tp8544
F-0.0475671162102592
s(g7355
I0
tp8545
F-0.2808333333333334
s(g7367
I1
tp8546
F0.0
s(g3528
I0
tp8547
F0.004076915726597502
s(g5968
I1
tp8548
F0.0
s(g7394
I1
tp8549
F0.0
s(g7421
I1
tp8550
F0.0
s(g7446
I0
tp8551
F-0.06999999999999999
s(g7459
I1
tp8552
F-3.932974289203776e-05
s(g7471
I1
tp8553
F0.002875500089083673
s(g7486
I0
tp8554
F7.241886117439557e-13
s(g4
((lp8555
(g23
I0
tp8556
a(g18
g3346
tp8557
a(g6
g7
(g11
S'\x02\x00\x00\x00\x00\x00\x00\x00'
p8558
tp8559
Rp8560
tp8561
a(g25
I8
tp8562
a(g27
I0
tp8563
atp8564
Rp8565
I1
tp8566
F0.0
s(g7510
I1
tp8567
F0.0
s(g4
((lp8568
(g23
I0
tp8569
a(g18
g501
tp8570
a(g25
I5
tp8571
a(g6
g7
(g11
S'\x07\x00\x00\x00\x00\x00\x00\x00'
p8572
tp8573
Rp8574
tp8575
a(g27
I0
tp8576
atp8577
Rp8578
I0
tp8579
F-6.082206486345434e-07
s(g4
((lp8580
(g23
I0
tp8581
a(g18
g4283
tp8582
a(g25
I6
tp8583
a(g6
g7
(g11
S'\n\x00\x00\x00\x00\x00\x00\x00'
p8584
tp8585
Rp8586
tp8587
a(g27
I0
tp8588
atp8589
Rp8590
I1
tp8591
F0.0
s(g7537
I0
tp8592
F-0.01732812557297778
s(g7550
I0
tp8593
F0.012320629642246452
s(g4475
I0
tp8594
F0.0
s(g4
((lp8595
(g23
I0
tp8596
a(g6
g7
(g11
S'\x04\x00\x00\x00\x00\x00\x00\x00'
p8597
tp8598
Rp8599
tp8600
a(g18
g154
tp8601
a(g25
I5
tp8602
a(g27
I0
tp8603
atp8604
Rp8605
I1
tp8606
F-0.01190878445832853
s(g7317
I1
tp8607
F0.007192090022576638
s(g7578
I0
tp8608
F0.6773061760610567
s(g4
((lp8609
(g23
I0
tp8610
a(g18
g3833
tp8611
a(g25
I9
tp8612
a(g6
I1
tp8613
a(g27
I0
tp8614
atp8615
Rp8616
I0
tp8617
F0.038437207765128614
s(g1630
I0
tp8618
F0.011225970939020459
s(g7523
I1
tp8619
F0.08871041055529125
s(g4
((lp8620
(g23
I0
tp8621
a(g18
g444
tp8622
a(g6
g7
(g11
S'\x02\x00\x00\x00\x00\x00\x00\x00'
p8623
tp8624
Rp8625
tp8626
a(g25
I0
tp8627
a(g27
I0
tp8628
atp8629
Rp8630
I1
tp8631
F0.0
s(g4
((lp8632
(g23
I0
tp8633
a(g18
g4283
tp8634
a(g6
g7
(g11
S'\n\x00\x00\x00\x00\x00\x00\x00'
p8635
tp8636
Rp8637
tp8638
a(g27
I1
tp8639
a(g25
I7
tp8640
atp8641
Rp8642
I1
tp8643
F0.0
s(g4
((lp8644
(g23
I0
tp8645
a(g18
g2183
tp8646
a(g6
g7
(g11
S'\xfb\xff\xff\xff\xff\xff\xff\xff'
p8647
tp8648
Rp8649
tp8650
a(g25
I8
tp8651
a(g27
I0
tp8652
atp8653
Rp8654
I0
tp8655
F2.489446505299482e-12
s(g4
((lp8656
(g23
I0
tp8657
a(g18
g357
tp8658
a(g25
I8
tp8659
a(g6
g7
(g11
S'\xfc\xff\xff\xff\xff\xff\xff\xff'
p8660
tp8661
Rp8662
tp8663
a(g27
I0
tp8664
atp8665
Rp8666
I1
tp8667
F0.0
s(g4
((lp8668
(g23
I0
tp8669
a(g25
I4
tp8670
a(g18
g1435
tp8671
a(g6
g7
(g11
S'\x06\x00\x00\x00\x00\x00\x00\x00'
p8672
tp8673
Rp8674
tp8675
a(g27
I0
tp8676
atp8677
Rp8678
I0
tp8679
F-0.14083333333333334
s(g7594
I1
tp8680
F0.0
s(g4422
I1
tp8681
F0.0
s(g4
((lp8682
(g23
I0
tp8683
a(g25
I3
tp8684
a(g18
g254
tp8685
a(g6
g7
(g11
S'\xff\xff\xff\xff\xff\xff\xff\xff'
p8686
tp8687
Rp8688
tp8689
a(g27
I0
tp8690
atp8691
Rp8692
I1
tp8693
F0.09454106360658462
s(g4
((lp8694
(g18
g1984
tp8695
a(g25
I9
tp8696
a(g23
I1
tp8697
a(g6
g7
(g11
S'\xfa\xff\xff\xff\xff\xff\xff\xff'
p8698
tp8699
Rp8700
tp8701
a(g27
I0
tp8702
atp8703
Rp8704
I1
tp8705
F0.0
s(g2896
I1
tp8706
F0.0
s(g4
((lp8707
(g23
I0
tp8708
a(g18
g7
(g11
S'\x01\x00\x00\x00\x00\x00\x00\x00'
p8709
tp8710
Rp8711
tp8712
a(g6
g7
(g11
S'\n\x00\x00\x00\x00\x00\x00\x00'
p8713
tp8714
Rp8715
tp8716
a(g27
I1
tp8717
a(g25
I9
tp8718
atp8719
Rp8720
I1
tp8721
F0.0
s(g2237
I0
tp8722
F0.250254581243381
s(g5466
I0
tp8723
F0.007598021336986482
s(g7622
I0
tp8724
F-0.2891666666666667
s(g7636
I1
tp8725
F0.0
s(g7648
I1
tp8726
F0.0
s(g4
((lp8727
(g23
I0
tp8728
a(g18
g651
tp8729
a(g6
g7
(g11
S'\x02\x00\x00\x00\x00\x00\x00\x00'
p8730
tp8731
Rp8732
tp8733
a(g25
I3
tp8734
a(g27
I0
tp8735
atp8736
Rp8737
I0
tp8738
F0.0019651681459632473
s(g8135
I1
tp8739
F0.0
s(g4
((lp8740
(g18
g5343
tp8741
a(g23
I1
tp8742
a(g6
g7
(g11
S'\xf7\xff\xff\xff\xff\xff\xff\xff'
p8743
tp8744
Rp8745
tp8746
a(g25
I5
tp8747
a(g27
I0
tp8748
atp8749
Rp8750
I1
tp8751
F-0.00012288933333333334
s(g8221
I1
tp8752
F0.0
s(g7663
I1
tp8753
F0.0322774370240722
s(g7688
I0
tp8754
F0.0
s(g7701
I1
tp8755
F0.00034620917728679906
s(g4264
I1
tp8756
F0.0
s(g4
((lp8757
(g23
I0
tp8758
a(g18
g414
tp8759
a(g27
I1
tp8760
a(g25
I7
tp8761
a(g6
g7
(g11
S'\x05\x00\x00\x00\x00\x00\x00\x00'
p8762
tp8763
Rp8764
tp8765
atp8766
Rp8767
I0
tp8768
F-0.0017449385424738383
s(g7717
I1
tp8769
F0.0
s(g4
((lp8770
(g25
I4
tp8771
a(g18
g1781
tp8772
a(g23
I1
tp8773
a(g6
g7
(g11
S'\xfe\xff\xff\xff\xff\xff\xff\xff'
p8774
tp8775
Rp8776
tp8777
a(g27
I0
tp8778
atp8779
Rp8780
I1
tp8781
F0.03762752412647319
s(g7732
I1
tp8782
F2.1933452140323442e-18
s(g6268
I1
tp8783
F0.0
s(g7759
I1
tp8784
F0.0
s(g4
((lp8785
(g18
g2291
tp8786
a(g23
I1
tp8787
a(g6
g7
(g11
S'\xff\xff\xff\xff\xff\xff\xff\xff'
p8788
tp8789
Rp8790
tp8791
a(g25
I6
tp8792
a(g27
I0
tp8793
atp8794
Rp8795
I0
tp8796
F0.10459108161745276
s(g8692
I0
tp8797
F0.4009723012967717
s(g8720
I0
tp8798
F-0.24833333333333332
s(g4
((lp8799
(g23
I0
tp8800
a(g18
g69
tp8801
a(g6
g7
(g11
S'\x01\x00\x00\x00\x00\x00\x00\x00'
p8802
tp8803
Rp8804
tp8805
a(g25
I6
tp8806
a(g27
I0
tp8807
atp8808
Rp8809
I0
tp8810
F0.0001251203580458322
s(g7774
I0
tp8811
F0.00026226201878268356
s(g6527
I0
tp8812
F2.9317749689401812e-12
s(g4
((lp8813
(g23
I0
tp8814
a(g18
g681
tp8815
a(g25
I-3
tp8816
a(g6
g7
(g11
S'\x02\x00\x00\x00\x00\x00\x00\x00'
p8817
tp8818
Rp8819
tp8820
a(g27
I1
tp8821
atp8822
Rp8823
I1
tp8824
F0.0
s(g4
((lp8825
(g23
I0
tp8826
a(g6
g7
(g11
S'\x04\x00\x00\x00\x00\x00\x00\x00'
p8827
tp8828
Rp8829
tp8830
a(g18
g6974
tp8831
a(g25
I-3
tp8832
a(g27
I0
tp8833
atp8834
Rp8835
I1
tp8836
F0.0
s(g4
((lp8837
(g23
I0
tp8838
a(g18
g3519
tp8839
a(g25
I6
tp8840
a(g6
g7
(g11
S'\x00\x00\x00\x00\x00\x00\x00\x00'
p8841
tp8842
Rp8843
tp8844
a(g27
I0
tp8845
atp8846
Rp8847
I1
tp8848
F0.0
s(g8809
I1
tp8849
F0.0
s(g5740
I0
tp8850
F0.1522116902187867
s(g4
((lp8851
(g23
I0
tp8852
a(g18
g3519
tp8853
a(g25
I9
tp8854
a(g6
I0
tp8855
a(g27
I0
tp8856
atp8857
Rp8858
I0
tp8859
F1.1451179866907354e-07
s(g7017
I1
tp8860
F0.0017082167972534662
s(g4
((lp8861
(g23
I0
tp8862
a(g18
g681
tp8863
a(g25
I-1
tp8864
a(g6
g7
(g11
S'\xfd\xff\xff\xff\xff\xff\xff\xff'
p8865
tp8866
Rp8867
tp8868
a(g27
I0
tp8869
atp8870
Rp8871
I1
tp8872
F0.0
s(g6992
I0
tp8873
F-0.45317134527377995
s(g7833
I1
tp8874
F-0.14723333333333333
s(g4
((lp8875
(g23
I0
tp8876
a(g18
g1312
tp8877
a(g25
I0
tp8878
a(g27
I1
tp8879
a(g6
g7
(g11
S'\x05\x00\x00\x00\x00\x00\x00\x00'
p8880
tp8881
Rp8882
tp8883
atp8884
Rp8885
I1
tp8886
F0.0
s(g7876
I0
tp8887
F0.005449505457499515
s(g4
((lp8888
(g18
g357
tp8889
a(g23
I1
tp8890
a(g25
I8
tp8891
a(g6
g7
(g11
S'\xf4\xff\xff\xff\xff\xff\xff\xff'
p8892
tp8893
Rp8894
tp8895
a(g27
I0
tp8896
atp8897
Rp8898
I0
tp8899
F0.0
s(g4
((lp8900
(g23
I0
tp8901
a(g18
g2276
tp8902
a(g25
I8
tp8903
a(g6
g7
(g11
S'\x08\x00\x00\x00\x00\x00\x00\x00'
p8904
tp8905
Rp8906
tp8907
a(g27
I0
tp8908
atp8909
Rp8910
I1
tp8911
F0.0
s(g4
((lp8912
(g23
I0
tp8913
a(g18
g4362
tp8914
a(g6
g7
(g11
S'\xfe\xff\xff\xff\xff\xff\xff\xff'
p8915
tp8916
Rp8917
tp8918
a(g25
I5
tp8919
a(g27
I0
tp8920
atp8921
Rp8922
I0
tp8923
F0.16217032277716034
s(g2105
I1
tp8924
F0.0033049547976520227
s(g4
((lp8925
(g18
g1958
tp8926
a(g23
I1
tp8927
a(g6
g7
(g11
S'\xf9\xff\xff\xff\xff\xff\xff\xff'
p8928
tp8929
Rp8930
tp8931
a(g25
I5
tp8932
a(g27
I0
tp8933
atp8934
Rp8935
I1
tp8936
F-0.00038270554147147037
s(g4
((lp8937
(g23
I0
tp8938
a(g18
g767
tp8939
a(g6
g7
(g11
S'\xff\xff\xff\xff\xff\xff\xff\xff'
p8940
tp8941
Rp8942
tp8943
a(g25
I8
tp8944
a(g27
I0
tp8945
atp8946
Rp8947
I1
tp8948
F0.000770469959565792
s(g4
((lp8949
(g23
I0
tp8950
a(g18
g3253
tp8951
a(g25
I6
tp8952
a(g6
g7
(g11
S'\x02\x00\x00\x00\x00\x00\x00\x00'
p8953
tp8954
Rp8955
tp8956
a(g27
I1
tp8957
atp8958
Rp8959
I0
tp8960
F0.0
s(g4
((lp8961
(g23
I0
tp8962
a(g18
g7
(g11
S'\x01\x00\x00\x00\x00\x00\x00\x00'
p8963
tp8964
Rp8965
tp8966
a(g6
g7
(g11
S'\x07\x00\x00\x00\x00\x00\x00\x00'
p8967
tp8968
Rp8969
tp8970
a(g25
I8
tp8971
a(g27
I0
tp8972
atp8973
Rp8974
I0
tp8975
F0.0
s(g7889
I1
tp8976
F0.0006097103614062619
s(g3797
I0
tp8977
F0.0060538232148979266
s(g4
((lp8978
(g23
I0
tp8979
a(g18
g80
tp8980
a(g6
g7
(g11
S'\x01\x00\x00\x00\x00\x00\x00\x00'
p8981
tp8982
Rp8983
tp8984
a(g27
I1
tp8985
a(g25
I4
tp8986
atp8987
Rp8988
I1
tp8989
F0.0
s(g8871
I0
tp8990
F9.946168112551017e-16
s(g7608
I0
tp8991
F0.00023953947079459115
s(g7904
I0
tp8992
F-0.07787568570596301
s(g4
((lp8993
(g23
I0
tp8994
a(g18
g825
tp8995
a(g25
I4
tp8996
a(g6
g7
(g11
S'\x04\x00\x00\x00\x00\x00\x00\x00'
p8997
tp8998
Rp8999
tp9000
a(g27
I0
tp9001
atp9002
Rp9003
I1
tp9004
F-0.5104369444444444
s(g4
((lp9005
(g6
g7
(g11
S'\xfb\xff\xff\xff\xff\xff\xff\xff'
p9006
tp9007
Rp9008
tp9009
a(g18
g2183
tp9010
a(g23
I1
tp9011
a(g25
I8
tp9012
a(g27
I0
tp9013
atp9014
Rp9015
I1
tp9016
F0.0
s(g6885
I1
tp9017
F0.00042450085670387957
s(g4343
I1
tp9018
F-0.08614309677044125
s(g4
((lp9019
(g23
I0
tp9020
a(g18
g1420
tp9021
a(g6
g7
(g11
S'\xfb\xff\xff\xff\xff\xff\xff\xff'
p9022
tp9023
Rp9024
tp9025
a(g25
I4
tp9026
a(g27
I0
tp9027
atp9028
Rp9029
I0
tp9030
F-0.13916666666666666
s(g6232
I0
tp9031
F6.18201834368567e-13
s(g7923
I0
tp9032
F0.0
s(g7935
I1
tp9033
F0.0
s(g7949
I1
tp9034
F0.0
s(g3004
I0
tp9035
F0.02783864515288816
s(g7963
I1
tp9036
F-0.07466876558856533
s(g7975
I0
tp9037
F7.808740812331098e-11
s(g6560
I0
tp9038
F-5.1152478357042824e-08
s(g4
((lp9039
(g23
I0
tp9040
a(g18
g543
tp9041
a(g6
g7
(g11
S'\xff\xff\xff\xff\xff\xff\xff\xff'
p9042
tp9043
Rp9044
tp9045
a(g25
I3
tp9046
a(g27
I0
tp9047
atp9048
Rp9049
I1
tp9050
F0.0
s(g7989
I0
tp9051
F-0.29750000000000004
s(g4
((lp9052
(g23
I0
tp9053
a(g18
g6690
tp9054
a(g25
I6
tp9055
a(g27
I1
tp9056
a(g6
g7
(g11
S'\x04\x00\x00\x00\x00\x00\x00\x00'
p9057
tp9058
Rp9059
tp9060
atp9061
Rp9062
I1
tp9063
F-0.0011088226994394599
s(g8003
I1
tp9064
F0.0
s(g4
((lp9065
(g23
I0
tp9066
a(g25
I4
tp9067
a(g18
g7
(g11
S'\x04\x00\x00\x00\x00\x00\x00\x00'
p9068
tp9069
Rp9070
tp9071
a(g6
g7
(g11
S'\xf9\xff\xff\xff\xff\xff\xff\xff'
p9072
tp9073
Rp9074
tp9075
a(g27
I0
tp9076
atp9077
Rp9078
I0
tp9079
F-0.6742942201111374
s(g5274
I0
tp9080
F7.124606095210857e-16
s(g4
((lp9081
(g23
I0
tp9082
a(g18
g7
(g11
S'\x04\x00\x00\x00\x00\x00\x00\x00'
p9083
tp9084
Rp9085
tp9086
a(g27
I1
tp9087
a(g25
I7
tp9088
a(g6
g7
(g11
S'\x05\x00\x00\x00\x00\x00\x00\x00'
p9089
tp9090
Rp9091
tp9092
atp9093
Rp9094
I1
tp9095
F0.0
s(g4147
I0
tp9096
F0.05633203466599727
s(g8018
I1
tp9097
F0.0
s(g4
((lp9098
(g23
I0
tp9099
a(g18
g224
tp9100
a(g6
g7
(g11
S'\xfe\xff\xff\xff\xff\xff\xff\xff'
p9101
tp9102
Rp9103
tp9104
a(g25
I-2
tp9105
a(g27
I0
tp9106
atp9107
Rp9108
I1
tp9109
F0.002062337405129648
s(g4
((lp9110
(g23
I0
tp9111
a(g18
g3975
tp9112
a(g6
g7
(g11
S'\n\x00\x00\x00\x00\x00\x00\x00'
p9113
tp9114
Rp9115
tp9116
a(g27
I1
tp9117
a(g25
I4
tp9118
atp9119
Rp9120
I0
tp9121
F-0.25364861111111114
s(g8123
I0
tp9122
F0.0014558597791467065
s(g8490
I1
tp9123
F0.0
s(g8031
I1
tp9124
F0.0
s(g2078
I1
tp9125
F0.0
s(g6349
I1
tp9126
F0.0
s(g4
((lp9127
(g23
I0
tp9128
a(g18
g709
tp9129
a(g6
g7
(g11
S'\x02\x00\x00\x00\x00\x00\x00\x00'
p9130
tp9131
Rp9132
tp9133
a(g27
I1
tp9134
a(g25
I-1
tp9135
atp9136
Rp9137
I1
tp9138
F0.0
s(g8056
I1
tp9139
F0.0
s(g8069
I0
tp9140
F0.0
s(g4
((lp9141
(g23
I0
tp9142
a(g6
g7
(g11
S'\x04\x00\x00\x00\x00\x00\x00\x00'
p9143
tp9144
Rp9145
tp9146
a(g18
g1842
tp9147
a(g25
I-1
tp9148
a(g27
I0
tp9149
atp9150
Rp9151
I0
tp9152
F9.841529788078378e-06
s(g8083
I1
tp9153
F0.0
s(g4
((lp9154
(g23
I0
tp9155
a(g18
g5395
tp9156
a(g6
g7
(g11
S'\xfe\xff\xff\xff\xff\xff\xff\xff'
p9157
tp9158
Rp9159
tp9160
a(g25
I-3
tp9161
a(g27
I0
tp9162
atp9163
Rp9164
I0
tp9165
F0.027920765766443614
s(g8095
I1
tp9166
F0.0
s(g5752
I1
tp9167
F0.0
s(g8107
I1
tp9168
F0.0
s(g4
((lp9169
(g18
g825
tp9170
a(g23
I1
tp9171
a(g6
g7
(g11
S'\xfe\xff\xff\xff\xff\xff\xff\xff'
p9172
tp9173
Rp9174
tp9175
a(g25
I7
tp9176
a(g27
I0
tp9177
atp9178
Rp9179
I0
tp9180
F1.278513120387797e-06
s(g4
((lp9181
(g23
I0
tp9182
a(g18
g474
tp9183
a(g6
g7
(g11
S'\t\x00\x00\x00\x00\x00\x00\x00'
p9184
tp9185
Rp9186
tp9187
a(g27
I1
tp9188
a(g25
I4
tp9189
atp9190
Rp9191
I1
tp9192
F-0.8435773778459779
s(g1195
I0
tp9193
F0.0
s(g8149
I0
tp9194
F-0.3966666666666666
s(g4
((lp9195
(g23
I0
tp9196
a(g18
g543
tp9197
a(g6
g7
(g11
S'\xff\xff\xff\xff\xff\xff\xff\xff'
p9198
tp9199
Rp9200
tp9201
a(g25
I0
tp9202
a(g27
I0
tp9203
atp9204
Rp9205
I1
tp9206
F0.0
s(g4
((lp9207
(g23
I0
tp9208
a(g18
g240
tp9209
a(g25
I-3
tp9210
a(g27
I1
tp9211
a(g6
g7
(g11
S'\x04\x00\x00\x00\x00\x00\x00\x00'
p9212
tp9213
Rp9214
tp9215
atp9216
Rp9217
I1
tp9218
F0.0
s(g2963
I1
tp9219
F1.546587075214378e-05
s(g8173
I0
tp9220
F-0.42169623759777086
s(g8185
I0
tp9221
F-5.570141369441261e-06
s(g8197
I0
tp9222
F0.005783285863388957
s(g5039
I0
tp9223
F0.5990928167953001
s(g4386
I1
tp9224
F0.0
s(g8237
I0
tp9225
F-0.2263285099125681
s(g2400
I0
tp9226
F0.3810118999291356
s(g4
((lp9227
(g23
I0
tp9228
a(g18
g1174
tp9229
a(g6
g7
(g11
S'\x07\x00\x00\x00\x00\x00\x00\x00'
p9230
tp9231
Rp9232
tp9233
a(g25
I-3
tp9234
a(g27
I1
tp9235
atp9236
Rp9237
I0
tp9238
F0.0
s(g4
((lp9239
(g23
I0
tp9240
a(g18
g681
tp9241
a(g27
I1
tp9242
a(g6
g7
(g11
S'\x00\x00\x00\x00\x00\x00\x00\x00'
p9243
tp9244
Rp9245
tp9246
a(g25
I8
tp9247
atp9248
Rp9249
I0
tp9250
F2.215090625193865e-09
s(g8250
I0
tp9251
F0.0007209247791329923
s(g8263
I0
tp9252
F3.9339492716195315e-10
s(g4
((lp9253
(g23
I0
tp9254
a(g18
g130
tp9255
a(g25
I5
tp9256
a(g6
g7
(g11
S'\x05\x00\x00\x00\x00\x00\x00\x00'
p9257
tp9258
Rp9259
tp9260
a(g27
I0
tp9261
atp9262
Rp9263
I0
tp9264
F-0.009279032070036268
s(g5632
I0
tp9265
F4.907253019437108e-12
s(g8275
I1
tp9266
F0.0
s(g4
((lp9267
(g23
I0
tp9268
a(g18
g4283
tp9269
a(g6
g7
(g11
S'\n\x00\x00\x00\x00\x00\x00\x00'
p9270
tp9271
Rp9272
tp9273
a(g25
I4
tp9274
a(g27
I0
tp9275
atp9276
Rp9277
I1
tp9278
F0.0
s(g8287
I0
tp9279
F0.0
s(g2436
I0
tp9280
F-0.2008333333333333
s(g8299
I1
tp9281
F0.0
s(g4798
I1
tp9282
F0.024810660130342214
s(g8329
I0
tp9283
F1.2591121399689357e-05
s(g4
((lp9284
(g23
I0
tp9285
a(g18
g2291
tp9286
a(g25
I7
tp9287
a(g6
g7
(g11
S'\x01\x00\x00\x00\x00\x00\x00\x00'
p9288
tp9289
Rp9290
tp9291
a(g27
I0
tp9292
atp9293
Rp9294
I0
tp9295
F0.06752191741700737
s(g4
((lp9296
(g23
I0
tp9297
a(g6
g7
(g11
S'\xfc\xff\xff\xff\xff\xff\xff\xff'
p9298
tp9299
Rp9300
tp9301
a(g18
g2097
tp9302
a(g25
I4
tp9303
a(g27
I0
tp9304
atp9305
Rp9306
I0
tp9307
F0.11450224966187178
s(g4
((lp9308
(g23
I0
tp9309
a(g18
g1393
tp9310
a(g25
I7
tp9311
a(g6
g7
(g11
S'\x00\x00\x00\x00\x00\x00\x00\x00'
p9312
tp9313
Rp9314
tp9315
a(g27
I0
tp9316
atp9317
Rp9318
I1
tp9319
F0.0009941503474860263
s(g8342
I1
tp9320
F0.016803995436834755
s(g4
((lp9321
(g18
g651
tp9322
a(g25
I1
tp9323
a(g23
I1
tp9324
a(g6
g7
(g11
S'\xff\xff\xff\xff\xff\xff\xff\xff'
p9325
tp9326
Rp9327
tp9328
a(g27
I0
tp9329
atp9330
Rp9331
I0
tp9332
F0.3437256375108338
s(g8922
I1
tp9333
F0.02950594483281567
s(g8354
I1
tp9334
F0.0
s(g8366
I1
tp9335
F0.0008382412441935397
s(g8391
I0
tp9336
F0.36056215086900045
s(g4
((lp9337
(g23
I0
tp9338
a(g18
g709
tp9339
a(g6
g7
(g11
S'\x02\x00\x00\x00\x00\x00\x00\x00'
p9340
tp9341
Rp9342
tp9343
a(g25
I-2
tp9344
a(g27
I0
tp9345
atp9346
Rp9347
I1
tp9348
F2.090095898581717e-05
s(g4
((lp9349
(g23
I0
tp9350
a(g18
g1553
tp9351
a(g6
g7
(g11
S'\x02\x00\x00\x00\x00\x00\x00\x00'
p9352
tp9353
Rp9354
tp9355
a(g27
I1
tp9356
a(g25
I5
tp9357
atp9358
Rp9359
I0
tp9360
F0.01652391816031282
s(g4
((lp9361
(g23
I0
tp9362
a(g18
g7
(g11
S'\x01\x00\x00\x00\x00\x00\x00\x00'
p9363
tp9364
Rp9365
tp9366
a(g6
g7
(g11
S'\xfe\xff\xff\xff\xff\xff\xff\xff'
p9367
tp9368
Rp9369
tp9370
a(g25
I5
tp9371
a(g27
I0
tp9372
atp9373
Rp9374
I0
tp9375
F4.058257087251399e-05
s(g4
((lp9376
(g23
I0
tp9377
a(g6
g7
(g11
S'\x04\x00\x00\x00\x00\x00\x00\x00'
p9378
tp9379
Rp9380
tp9381
a(g18
g7712
tp9382
a(g25
I5
tp9383
a(g27
I1
tp9384
atp9385
Rp9386
I0
tp9387
F-0.017818582211828703
s(g5535
I0
tp9388
F1.0596820016898739e-05
s(g4
((lp9389
(g23
I0
tp9390
a(g18
g179
tp9391
a(g25
I1
tp9392
a(g6
g7
(g11
S'\xfe\xff\xff\xff\xff\xff\xff\xff'
p9393
tp9394
Rp9395
tp9396
a(g27
I0
tp9397
atp9398
Rp9399
I0
tp9400
F0.5857311376107515
s(g8405
I1
tp9401
F3.5989946423839215e-06
s(g3915
I1
tp9402
F0.0
s(g7237
I1
tp9403
F0.0
s(g8418
I1
tp9404
F0.002582224385917273
s(g4
((lp9405
(g23
I0
tp9406
a(g18
g429
tp9407
a(g25
I-3
tp9408
a(g6
g7
(g11
S'\xfd\xff\xff\xff\xff\xff\xff\xff'
p9409
tp9410
Rp9411
tp9412
a(g27
I0
tp9413
atp9414
Rp9415
I1
tp9416
F0.0
s(g8436
I1
tp9417
F0.04982041836566229
s(g8947
I0
tp9418
F0.046259137081391656
s(g7498
I1
tp9419
F0.01895084327879793
s(g8462
I0
tp9420
F0.02408841994627334
s(g8474
I0
tp9421
F0.0
s(g45
I1
tp9422
F0.0
s(g75
I0
tp9423
F0.0
s(g90
I0
tp9424
F0.0
s(g4
((lp9425
(g18
g312
tp9426
a(g23
I1
tp9427
a(g6
g7
(g11
S'\xf8\xff\xff\xff\xff\xff\xff\xff'
p9428
tp9429
Rp9430
tp9431
a(g25
I9
tp9432
a(g27
I0
tp9433
atp9434
Rp9435
I1
tp9436
F0.011402993184568644
s(g120
I1
tp9437
F0.03364375969032287
s(g147
I1
tp9438
F0.0
s(g4617
I0
tp9439
F-3.051742823964888e-08
s(g159
I0
tp9440
F0.0008715602894927056
s(g174
I1
tp9441
F-0.00086768
s(g204
I0
tp9442
F0.38294714626614296
s(g8506
I0
tp9443
F0.010709349970921326
s(g219
I1
tp9444
F0.0
s(g8518
I1
tp9445
F0.10871166744201907
s(g1024
I0
tp9446
F0.029753962701866365
s(g8531
I1
tp9447
F-0.3027875
s(g249
I0
tp9448
F4.177402127949854e-13
s(g8448
I0
tp9449
F5.88312410311618e-07
s(g8543
I0
tp9450
F-0.04918457532191608
s(g291
I0
tp9451
F0.03575094926461783
s(g4920
I1
tp9452
F0.0
s(g321
I0
tp9453
F0.9071968242240134
s(g408
I0
tp9454
F0.00570082531913123
s(g438
I0
tp9455
F-0.056335285923676516
s(g8565
I0
tp9456
F9.86236794434606e-07
s(g9277
I0
tp9457
F-0.15250000000000002
s(g468
I1
tp9458
F0.0
s(g8578
I1
tp9459
F0.0
s(g495
I0
tp9460
F0.039502123096154855
s(g381
I0
tp9461
F0.0007928124628721421
s(g8590
I0
tp9462
F0.0
s(g537
I0
tp9463
F0.1604456130390614
s(g5843
I1
tp9464
F0.0
s(g552
I0
tp9465
F2.529010417399435e-10
s(g8605
I0
tp9466
F-0.009296378481256681
s(g564
I1
tp9467
F0.03482250538923471
s(g591
I1
tp9468
F0.0
s(g633
I0
tp9469
F-0.8675535634888399
s(g8616
I1
tp9470
F0.0008217921095619188
s(g4962
I0
tp9471
F0.23043638715467032
s(g8630
I0
tp9472
F0.0
s(g8642
I0
tp9473
F0.0
s(g4489
I0
tp9474
F0.2462327079073219
s(g8654
I1
tp9475
F0.0
s(g5956
I1
tp9476
F0.0
s(g7381
I1
tp9477
F0.0
s(g8678
I1
tp9478
F0.0
s(g7179
I0
tp9479
F7.432579509216607e-06
s(g717
I1
tp9480
F0.0
s(g732
I1
tp9481
F-0.01782212932410922
s(g9435
I0
tp9482
F-0.43499999999999994
s(g3564
I1
tp9483
F0.029706039145794054
s(g645
I1
tp9484
F0.0
s(g8704
I0
tp9485
F0.0
s(g892
I1
tp9486
F0.0
s(g6911
I0
tp9487
F0.25355987434689986
s(g943
I1
tp9488
F-1.220245078957564e-06
s(g973
I0
tp9489
F-0.08822305289873815
s(g985
I0
tp9490
F0.0
s(g3183
I1
tp9491
F0.0
s(g997
I0
tp9492
F0.0
s(g8737
I1
tp9493
F0.0
s(g8750
I0
tp9494
F-0.4916666666666667
s(g1051
I0
tp9495
F0.0
s(g4463
I1
tp9496
F0.0
s(g8795
I1
tp9497
F0.0029601338390614065
s(g1141
I1
tp9498
F0.0
s(g8767
I1
tp9499
F-0.001992115000516505
s(g1183
I1
tp9500
F0.0
s(g8780
I0
tp9501
F0.22164197499408747
s(g7564
I0
tp9502
F4.1300922069183596e-07
s(g5714
I0
tp9503
F0.0
s(g1231
I1
tp9504
F0.0
s(g7746
I1
tp9505
F0.0
s(g8823
I0
tp9506
F6.973529785916505e-10
s(g2249
I0
tp9507
F0.011794057779169581
s(g8835
I0
tp9508
F0.0008925371850474849
s(g8847
I0
tp9509
F0.00010017649175339007
s(g1294
I0
tp9510
F0.5310664008049591
s(g7847
I1
tp9511
F0.037149556614443545
s(g1333
I0
tp9512
F-0.4633333333333334
s(g9318
I0
tp9513
F0.0688907323343336
s(g2682
I1
tp9514
F0.0007459535617209804
s(g1357
I1
tp9515
F0.0
s(g8858
I1
tp9516
F0.0
s(g1387
I1
tp9517
F0.0
s(g1402
I0
tp9518
F-0.5800000000000001
s(g8885
I0
tp9519
F0.0
s(g1429
I0
tp9520
F0.0
s(g5606
I0
tp9521
F0.027781573841065468
s(g1468
I1
tp9522
F0.01875465532119084
s(g1480
I1
tp9523
F0.0
s(g1492
I1
tp9524
F0.0
s(g1504
I0
tp9525
F0.036997892035357624
s(g8898
I1
tp9526
F0.0
s(g1582
I1
tp9527
F0.0
s(g8910
I0
tp9528
F0.0
s(g8935
I0
tp9529
F-0.012456000000000002
s(g6159
I1
tp9530
F-0.0017444337503945784
s(g8959
I1
tp9531
F0.0
s(g8974
I1
tp9532
F0.0
s(g1642
I1
tp9533
F0.0
s(g7434
I1
tp9534
F0.0
s(g1693
I0
tp9535
F-0.15171674739952914
s(g8988
I0
tp9536
F0.00014840468695816875
s(g4579
I0
tp9537
F0.0
s(g1718
I1
tp9538
F0.0
s(g8666
I0
tp9539
F3.9687744865421756e-10
s(g8161
I0
tp9540
F0.0
s(g4591
I1
tp9541
F0.0
s(g1739
I1
tp9542
F0.0
s(g9049
I0
tp9543
F0.0015432956814978066
s(g1763
I1
tp9544
F0.0
s(g1775
I1
tp9545
F0.06697027793442348
s(g9003
I0
tp9546
F-0.4971117935598768
s(g9015
I0
tp9547
F0.0
s(g1805
I1
tp9548
F-0.016901227723
s(g1859
I1
tp9549
F0.026638648411086048
s(g1886
I1
tp9550
F0.03868567105772988
s(g9029
I1
tp9551
F0.0
s(g9108
I0
tp9552
F0.020359260792498442
s(g1937
I0
tp9553
F0.027393892402216992
s(g1994
I1
tp9554
F0.0
s(g4655
I0
tp9555
F-0.5966666666666667
s(g9164
I1
tp9556
F0.0016623196455608053
s(g9094
I0
tp9557
F0.0005315929101219914
s(g9179
I1
tp9558
F0.0
s(g9120
I1
tp9559
F-0.2070737777777778
s(g2090
I1
tp9560
F0.08492230795531448
s(g9415
I0
tp9561
F7.253196806588657e-14
s(g6057
I1
tp9562
F0.0
s(g8209
I0
tp9563
F0.5854331523527596
s(g1979
I1
tp9564
F0.0
s(g2189
I0
tp9565
F-0.4666666666666668
s(g9137
I0
tp9566
F0.00024217319203163076
s(g2006
I0
tp9567
F3.118736710397212e-17
s(g9151
I1
tp9568
F0.0
s(g9062
I0
tp9569
F-0.001109597902923083
s(g4
((lp9570
(g23
I0
tp9571
a(g6
g7
(g11
S'\x03\x00\x00\x00\x00\x00\x00\x00'
p9572
tp9573
Rp9574
tp9575
a(g18
g130
tp9576
a(g25
I-3
tp9577
a(g27
I0
tp9578
atp9579
Rp9580
I1
tp9581
F0.0
s(g9191
I0
tp9582
F-0.8075415492002694
s(g2066
I0
tp9583
F2.525405654306105e-11
s(g2285
I0
tp9584
F0.0
s(g2120
I0
tp9585
F0.0
s(g6849
I0
tp9586
F0.0
s(g2300
I1
tp9587
F-0.8190396305555556
s(g2147
I1
tp9588
F0.0
s(g2312
I0
tp9589
F-0.5416666666666667
s(g9205
I0
tp9590
F4.0233016373951985e-14
s(g9217
I0
tp9591
F9.61678280579654e-12
s(g2324
I1
tp9592
F0.07517364318828337
s(g9078
I1
tp9593
F-0.6382422242304396
s(g2348
I1
tp9594
F0.0
s(g2361
I1
tp9595
F0.0
s(g6361
I1
tp9596
F0.0
s(g8316
I0
tp9597
F-0.02749527639875378
s(g8378
I0
tp9598
F0.06109668589475369
s(g9237
I1
tp9599
F0.0
s(g2466
I0
tp9600
F-0.255
s(g5441
I0
tp9601
F0.14179847350469665
s(g9249
I1
tp9602
F0.0
s(g2478
I1
tp9603
F0.00023796790422917085
s(g9263
I1
tp9604
F-0.010170396985060118
s(g9331
I1
tp9605
F0.0
s(g276
I1
tp9606
F0.0
s(g2553
I0
tp9607
F0.1022199239442402
s(g1706
I0
tp9608
F0.12203239745822138
s(g9347
I0
tp9609
F0.007451137893329311
s(g9294
I1
tp9610
F0.0003517907173814946
s(g2631
I1
tp9611
F0.008879108269218478
s(g2670
I1
tp9612
F0.0
s(g9306
I1
tp9613
F0.0
s(g1153
I0
tp9614
F-0.10558332568377021
s(g2502
I0
tp9615
F1.0539679631165533e-09
s(g7817
I0
tp9616
F-0.4066038872784315
s(g2709
I1
tp9617
F0.0
s(g2736
I0
tp9618
F8.723249825426564e-14
s(g2748
I1
tp9619
F-0.15517719102616856
s(g7029
I0
tp9620
F8.902252186842093e-10
s(g8043
I0
tp9621
F0.018424158962315213
s(g9359
I1
tp9622
F0.0
s(g2787
I1
tp9623
F-0.6906583873262541
s(g2796
I1
tp9624
F0.0
s(g9374
I1
tp9625
F0.0
s(g2808
I0
tp9626
F0.0
s(g3327
I1
tp9627
F0.01304806574559772
s(g9386
I1
tp9628
F-0.020698376267525707
s(g9399
I1
tp9629
F0.0
s(g9580
I0
tp9630
F0.002345230976510018
s(g7205
I1
tp9631
F0.0
s(g2388
I1
tp9632
F0.0
s(g2845
I0
tp9633
F0.0
s.