ccollections
defaultdict
p0
(c__builtin__
float
p1
tp2
Rp3
(c__builtin__
frozenset
p4
((lp5
(S'should_jump'
p6
I0
tp7
a(S'relative_y'
p8
cnumpy.core.multiarray
scalar
p9
(cnumpy
dtype
p10
(S'i8'
p11
I0
I1
tp12
Rp13
(I3
S'<'
p14
NNNI-1
I-1
I0
tp15
bS'\x03\x00\x00\x00\x00\x00\x00\x00'
p16
tp17
Rp18
tp19
a(S'gravity'
p20
g9
(g13
S'\x04\x00\x00\x00\x00\x00\x00\x00'
p21
tp22
Rp23
tp24
a(S'relative_x'
p25
I3
tp26
a(S'should_fall'
p27
I0
tp28
atp29
Rp30
I0
tp31
F0.0015745765365297497
s(g4
((lp32
(g6
I0
tp33
a(g25
I3
tp34
a(g20
g9
(g13
S'\x04\x00\x00\x00\x00\x00\x00\x00'
p35
tp36
Rp37
tp38
a(g8
I-1
tp39
a(g27
I0
tp40
atp41
Rp42
I1
tp43
F0.0
s(g4
((lp44
(g6
I0
tp45
a(g20
g9
(g13
S'\x01\x00\x00\x00\x00\x00\x00\x00'
p46
tp47
Rp48
tp49
a(g25
I1
tp50
a(g8
g9
(g13
S'\x03\x00\x00\x00\x00\x00\x00\x00'
p51
tp52
Rp53
tp54
a(g27
I0
tp55
atp56
Rp57
I1
tp58
F0.0
s(g4
((lp59
(g6
I0
tp60
a(g20
g9
(g13
S'\x01\x00\x00\x00\x00\x00\x00\x00'
p61
tp62
Rp63
tp64
a(g8
g9
(g13
S'\x01\x00\x00\x00\x00\x00\x00\x00'
p65
tp66
Rp67
tp68
a(g25
I1
tp69
a(g27
I0
tp70
atp71
Rp72
I0
tp73
F-0.25564844741100357
s(g4
((lp74
(g6
I0
tp75
a(g25
I3
tp76
a(g20
g9
(g13
S'\x04\x00\x00\x00\x00\x00\x00\x00'
p77
tp78
Rp79
tp80
a(g8
g9
(g13
S'\xfe\xff\xff\xff\xff\xff\xff\xff'
p81
tp82
Rp83
tp84
a(g27
I0
tp85
atp86
Rp87
I1
tp88
F0.0
s(g57
I0
tp89
F-0.5
s(g4
((lp90
(g6
I0
tp91
a(g20
g9
(g13
S'\x04\x00\x00\x00\x00\x00\x00\x00'
p92
tp93
Rp94
tp95
a(g8
g9
(g13
S'\x02\x00\x00\x00\x00\x00\x00\x00'
p96
tp97
Rp98
tp99
a(g27
I1
tp100
a(g25
I2
tp101
atp102
Rp103
I1
tp104
F-0.09852803915189763
s(g4
((lp105
(g6
I0
tp106
a(g20
g79
tp107
a(g25
I1
tp108
a(g8
g9
(g13
S'\x01\x00\x00\x00\x00\x00\x00\x00'
p109
tp110
Rp111
tp112
a(g27
I0
tp113
atp114
Rp115
I0
tp116
F0.08871711047181859
s(g4
((lp117
(g6
I0
tp118
a(g20
g9
(g13
S'\x01\x00\x00\x00\x00\x00\x00\x00'
p119
tp120
Rp121
tp122
a(g27
I1
tp123
a(g8
g9
(g13
S'\x00\x00\x00\x00\x00\x00\x00\x00'
p124
tp125
Rp126
tp127
a(g25
I2
tp128
atp129
Rp130
I1
tp131
F-0.013921994827754157
s(g4
((lp132
(g25
I1
tp133
a(g8
g9
(g13
S'\xfc\xff\xff\xff\xff\xff\xff\xff'
p134
tp135
Rp136
tp137
a(g20
g9
(g13
S'\x04\x00\x00\x00\x00\x00\x00\x00'
p138
tp139
Rp140
tp141
a(g6
I1
tp142
a(g27
I0
tp143
atp144
Rp145
I0
tp146
F-1.0
s(g4
((lp147
(g6
I0
tp148
a(g20
g63
tp149
a(g25
I0
tp150
a(g8
g9
(g13
S'\x00\x00\x00\x00\x00\x00\x00\x00'
p151
tp152
Rp153
tp154
a(g27
I0
tp155
atp156
Rp157
I0
tp158
F0.28194848462592914
s(g4
((lp159
(g6
I0
tp160
a(g20
g9
(g13
S'\x04\x00\x00\x00\x00\x00\x00\x00'
p161
tp162
Rp163
tp164
a(g8
g9
(g13
S'\x02\x00\x00\x00\x00\x00\x00\x00'
p165
tp166
Rp167
tp168
a(g27
I1
tp169
a(g25
I1
tp170
atp171
Rp172
I1
tp173
F-1.6924395756035064
s(g4
((lp174
(g6
I0
tp175
a(g20
g9
(g13
S'\x01\x00\x00\x00\x00\x00\x00\x00'
p176
tp177
Rp178
tp179
a(g8
I2
tp180
a(g27
I1
tp181
a(g25
I3
tp182
atp183
Rp184
I1
tp185
F-0.043790786192820244
s(g4
((lp186
(g6
I0
tp187
a(g20
g9
(g13
S'\x01\x00\x00\x00\x00\x00\x00\x00'
p188
tp189
Rp190
tp191
a(g8
g9
(g13
S'\xfe\xff\xff\xff\xff\xff\xff\xff'
p192
tp193
Rp194
tp195
a(g25
I0
tp196
a(g27
I0
tp197
atp198
Rp199
I1
tp200
F0.0
s(g172
I0
tp201
F-1.7325733128451843
s(g4
((lp202
(g6
I0
tp203
a(g20
g121
tp204
a(g25
I-1
tp205
a(g8
g9
(g13
S'\xff\xff\xff\xff\xff\xff\xff\xff'
p206
tp207
Rp208
tp209
a(g27
I0
tp210
atp211
Rp212
I1
tp213
F0.0
s(g4
((lp214
(g6
I0
tp215
a(g25
I3
tp216
a(g20
g9
(g13
S'\x04\x00\x00\x00\x00\x00\x00\x00'
p217
tp218
Rp219
tp220
a(g8
I2
tp221
a(g27
I0
tp222
atp223
Rp224
I1
tp225
F0.0
s(g4
((lp226
(g6
I0
tp227
a(g20
g9
(g13
S'\x01\x00\x00\x00\x00\x00\x00\x00'
p228
tp229
Rp230
tp231
a(g25
I1
tp232
a(g27
I1
tp233
a(g8
g9
(g13
S'\x03\x00\x00\x00\x00\x00\x00\x00'
p234
tp235
Rp236
tp237
atp238
Rp239
I0
tp240
F-3.927371016854563
s(g4
((lp241
(g6
I0
tp242
a(g20
g9
(g13
S'\x04\x00\x00\x00\x00\x00\x00\x00'
p243
tp244
Rp245
tp246
a(g25
I0
tp247
a(g8
g9
(g13
S'\x00\x00\x00\x00\x00\x00\x00\x00'
p248
tp249
Rp250
tp251
a(g27
I0
tp252
atp253
Rp254
I0
tp255
F0.5532566915593573
s(g30
I1
tp256
F0.0
s(g4
((lp257
(g6
I0
tp258
a(g20
g79
tp259
a(g8
g9
(g13
S'\xfe\xff\xff\xff\xff\xff\xff\xff'
p260
tp261
Rp262
tp263
a(g25
I-1
tp264
a(g27
I0
tp265
atp266
Rp267
I0
tp268
F0.03587980937683438
s(g4
((lp269
(g6
I0
tp270
a(g25
I1
tp271
a(g20
g9
(g13
S'\x04\x00\x00\x00\x00\x00\x00\x00'
p272
tp273
Rp274
tp275
a(g8
g9
(g13
S'\xff\xff\xff\xff\xff\xff\xff\xff'
p276
tp277
Rp278
tp279
a(g27
I0
tp280
atp281
Rp282
I0
tp283
F0.17808353856820586
s(g4
((lp284
(g6
I0
tp285
a(g25
I0
tp286
a(g20
g245
tp287
a(g27
I1
tp288
a(g8
g9
(g13
S'\x00\x00\x00\x00\x00\x00\x00\x00'
p289
tp290
Rp291
tp292
atp293
Rp294
I0
tp295
F0.32031513222081165
s(g4
((lp296
(g6
I0
tp297
a(g20
g219
tp298
a(g8
g9
(g13
S'\x01\x00\x00\x00\x00\x00\x00\x00'
p299
tp300
Rp301
tp302
a(g25
I2
tp303
a(g27
I0
tp304
atp305
Rp306
I0
tp307
F0.048579598910335926
s(g145
I1
tp308
F0.0
s(g4
((lp309
(g20
g121
tp310
a(g25
I-1
tp311
a(g6
I1
tp312
a(g8
g9
(g13
S'\xff\xff\xff\xff\xff\xff\xff\xff'
p313
tp314
Rp315
tp316
a(g27
I0
tp317
atp318
Rp319
I0
tp320
F0.0002783735198091507
s(g4
((lp321
(g6
I0
tp322
a(g8
g9
(g13
S'\x03\x00\x00\x00\x00\x00\x00\x00'
p323
tp324
Rp325
tp326
a(g20
g9
(g13
S'\x04\x00\x00\x00\x00\x00\x00\x00'
p327
tp328
Rp329
tp330
a(g25
I1
tp331
a(g27
I0
tp332
atp333
Rp334
I1
tp335
F0.0
s(g4
((lp336
(g6
I0
tp337
a(g20
g63
tp338
a(g8
I2
tp339
a(g25
I3
tp340
a(g27
I0
tp341
atp342
Rp343
I0
tp344
F-9.170804625706504e-05
s(g4
((lp345
(g6
I0
tp346
a(g20
g219
tp347
a(g8
g9
(g13
S'\x02\x00\x00\x00\x00\x00\x00\x00'
p348
tp349
Rp350
tp351
a(g25
I2
tp352
a(g27
I0
tp353
atp354
Rp355
I1
tp356
F0.0
s(g4
((lp357
(g6
I0
tp358
a(g25
I3
tp359
a(g20
g140
tp360
a(g8
I0
tp361
a(g27
I0
tp362
atp363
Rp364
I1
tp365
F0.0
s(g4
((lp366
(g6
I0
tp367
a(g25
I3
tp368
a(g20
g9
(g13
S'\x04\x00\x00\x00\x00\x00\x00\x00'
p369
tp370
Rp371
tp372
a(g8
I1
tp373
a(g27
I0
tp374
atp375
Rp376
I1
tp377
F0.0
s(g4
((lp378
(g6
I0
tp379
a(g25
I1
tp380
a(g20
g9
(g13
S'\x04\x00\x00\x00\x00\x00\x00\x00'
p381
tp382
Rp383
tp384
a(g8
g9
(g13
S'\x02\x00\x00\x00\x00\x00\x00\x00'
p385
tp386
Rp387
tp388
a(g27
I0
tp389
atp390
Rp391
I0
tp392
F-0.5074597884180556
s(g4
((lp393
(g6
I0
tp394
a(g20
g9
(g13
S'\x01\x00\x00\x00\x00\x00\x00\x00'
p395
tp396
Rp397
tp398
a(g8
g9
(g13
S'\x00\x00\x00\x00\x00\x00\x00\x00'
p399
tp400
Rp401
tp402
a(g25
I2
tp403
a(g27
I0
tp404
atp405
Rp406
I1
tp407
F0.0
s(g282
I1
tp408
F0.08311288221746793
s(g4
((lp409
(g6
I0
tp410
a(g20
g94
tp411
a(g27
I1
tp412
a(g8
g9
(g13
S'\x01\x00\x00\x00\x00\x00\x00\x00'
p413
tp414
Rp415
tp416
a(g25
I1
tp417
atp418
Rp419
I1
tp420
F-0.9857825945617238
s(g4
((lp421
(g6
I0
tp422
a(g20
g121
tp423
a(g25
I3
tp424
a(g8
g9
(g13
S'\x00\x00\x00\x00\x00\x00\x00\x00'
p425
tp426
Rp427
tp428
a(g27
I0
tp429
atp430
Rp431
I0
tp432
F0.008053507528456922
s(g4
((lp433
(g8
g9
(g13
S'\xfc\xff\xff\xff\xff\xff\xff\xff'
p434
tp435
Rp436
tp437
a(g20
g274
tp438
a(g6
I1
tp439
a(g25
I-1
tp440
a(g27
I0
tp441
atp442
Rp443
I1
tp444
F0.0
s(g4
((lp445
(g6
I0
tp446
a(g20
g79
tp447
a(g27
I1
tp448
a(g8
g9
(g13
S'\x01\x00\x00\x00\x00\x00\x00\x00'
p449
tp450
Rp451
tp452
a(g25
I2
tp453
atp454
Rp455
I1
tp456
F-0.0832085398007878
s(g4
((lp457
(g6
I0
tp458
a(g20
g9
(g13
S'\x01\x00\x00\x00\x00\x00\x00\x00'
p459
tp460
Rp461
tp462
a(g25
I0
tp463
a(g27
I1
tp464
a(g8
g9
(g13
S'\x00\x00\x00\x00\x00\x00\x00\x00'
p465
tp466
Rp467
tp468
atp469
Rp470
I1
tp471
F0.0
s(g4
((lp472
(g20
g371
tp473
a(g6
I1
tp474
a(g8
g9
(g13
S'\xff\xff\xff\xff\xff\xff\xff\xff'
p475
tp476
Rp477
tp478
a(g25
I-1
tp479
a(g27
I0
tp480
atp481
Rp482
I1
tp483
F0.0
s(g4
((lp484
(g6
I0
tp485
a(g20
g121
tp486
a(g8
g9
(g13
S'\xfe\xff\xff\xff\xff\xff\xff\xff'
p487
tp488
Rp489
tp490
a(g25
I3
tp491
a(g27
I0
tp492
atp493
Rp494
I1
tp495
F0.0
s(g4
((lp496
(g6
I0
tp497
a(g25
I0
tp498
a(g20
g9
(g13
S'\x04\x00\x00\x00\x00\x00\x00\x00'
p499
tp500
Rp501
tp502
a(g8
g9
(g13
S'\x02\x00\x00\x00\x00\x00\x00\x00'
p503
tp504
Rp505
tp506
a(g27
I1
tp507
atp508
Rp509
I1
tp510
F0.0
s(g4
((lp511
(g6
I0
tp512
a(g8
g9
(g13
S'\x04\x00\x00\x00\x00\x00\x00\x00'
p513
tp514
Rp515
tp516
a(g20
g383
tp517
a(g25
I2
tp518
a(g27
I0
tp519
atp520
Rp521
I0
tp522
F0.0
s(g4
((lp523
(g6
I0
tp524
a(g20
g79
tp525
a(g25
I0
tp526
a(g8
g9
(g13
S'\x01\x00\x00\x00\x00\x00\x00\x00'
p527
tp528
Rp529
tp530
a(g27
I0
tp531
atp532
Rp533
I1
tp534
F0.0
s(g4
((lp535
(g6
I0
tp536
a(g20
g9
(g13
S'\x04\x00\x00\x00\x00\x00\x00\x00'
p537
tp538
Rp539
tp540
a(g8
g9
(g13
S'\xff\xff\xff\xff\xff\xff\xff\xff'
p541
tp542
Rp543
tp544
a(g25
I-1
tp545
a(g27
I0
tp546
atp547
Rp548
I1
tp549
F0.0017042474669224225
s(g4
((lp550
(g6
I0
tp551
a(g20
g9
(g13
S'\x01\x00\x00\x00\x00\x00\x00\x00'
p552
tp553
Rp554
tp555
a(g8
g9
(g13
S'\xff\xff\xff\xff\xff\xff\xff\xff'
p556
tp557
Rp558
tp559
a(g25
I0
tp560
a(g27
I0
tp561
atp562
Rp563
I1
tp564
F0.0
s(g521
I1
tp565
F0.0
s(g4
((lp566
(g6
I0
tp567
a(g20
g9
(g13
S'\x01\x00\x00\x00\x00\x00\x00\x00'
p568
tp569
Rp570
tp571
a(g25
I1
tp572
a(g27
I1
tp573
a(g8
g9
(g13
S'\x04\x00\x00\x00\x00\x00\x00\x00'
p574
tp575
Rp576
tp577
atp578
Rp579
I0
tp580
F-3.15890283056
s(g4
((lp581
(g6
I0
tp582
a(g25
I3
tp583
a(g20
g79
tp584
a(g27
I1
tp585
a(g8
g9
(g13
S'\x00\x00\x00\x00\x00\x00\x00\x00'
p586
tp587
Rp588
tp589
atp590
Rp591
I0
tp592
F0.04030459390918555
s(g4
((lp593
(g6
I0
tp594
a(g20
g9
(g13
S'\x01\x00\x00\x00\x00\x00\x00\x00'
p595
tp596
Rp597
tp598
a(g25
I1
tp599
a(g8
g9
(g13
S'\x02\x00\x00\x00\x00\x00\x00\x00'
p600
tp601
Rp602
tp603
a(g27
I0
tp604
atp605
Rp606
I1
tp607
F0.0
s(g4
((lp608
(g20
g63
tp609
a(g25
I-1
tp610
a(g6
I1
tp611
a(g8
g9
(g13
S'\xfe\xff\xff\xff\xff\xff\xff\xff'
p612
tp613
Rp614
tp615
a(g27
I0
tp616
atp617
Rp618
I0
tp619
F-1.0
s(g4
((lp620
(g8
g9
(g13
S'\xfb\xff\xff\xff\xff\xff\xff\xff'
p621
tp622
Rp623
tp624
a(g20
g554
tp625
a(g25
I1
tp626
a(g6
I1
tp627
a(g27
I0
tp628
atp629
Rp630
I1
tp631
F0.0
s(g4
((lp632
(g6
I0
tp633
a(g20
g37
tp634
a(g25
I1
tp635
a(g8
g9
(g13
S'\xfd\xff\xff\xff\xff\xff\xff\xff'
p636
tp637
Rp638
tp639
a(g27
I0
tp640
atp641
Rp642
I1
tp643
F0.05510048720684399
s(g4
((lp644
(g6
I0
tp645
a(g20
g9
(g13
S'\x01\x00\x00\x00\x00\x00\x00\x00'
p646
tp647
Rp648
tp649
a(g25
I1
tp650
a(g8
g9
(g13
S'\xfe\xff\xff\xff\xff\xff\xff\xff'
p651
tp652
Rp653
tp654
a(g27
I0
tp655
atp656
Rp657
I1
tp658
F0.0
s(g103
I0
tp659
F-0.057991214826456174
s(g4
((lp660
(g20
g274
tp661
a(g6
I1
tp662
a(g25
I-1
tp663
a(g8
g9
(g13
S'\xfd\xff\xff\xff\xff\xff\xff\xff'
p664
tp665
Rp666
tp667
a(g27
I0
tp668
atp669
Rp670
I1
tp671
F0.0
s(g4
((lp672
(g20
g140
tp673
a(g6
I1
tp674
a(g8
g9
(g13
S'\xfe\xff\xff\xff\xff\xff\xff\xff'
p675
tp676
Rp677
tp678
a(g25
I2
tp679
a(g27
I0
tp680
atp681
Rp682
I0
tp683
F-0.99999707373568
s(g4
((lp684
(g20
g397
tp685
a(g6
I1
tp686
a(g25
I0
tp687
a(g8
g9
(g13
S'\xfe\xff\xff\xff\xff\xff\xff\xff'
p688
tp689
Rp690
tp691
a(g27
I0
tp692
atp693
Rp694
I1
tp695
F0.3078573081248037
s(g4
((lp696
(g6
I0
tp697
a(g20
g597
tp698
a(g8
g9
(g13
S'\x02\x00\x00\x00\x00\x00\x00\x00'
p699
tp700
Rp701
tp702
a(g27
I1
tp703
a(g25
I1
tp704
atp705
Rp706
I0
tp707
F-2.2810510465188494
s(g4
((lp708
(g6
I0
tp709
a(g25
I3
tp710
a(g20
g79
tp711
a(g27
I1
tp712
a(g8
g9
(g13
S'\x01\x00\x00\x00\x00\x00\x00\x00'
p713
tp714
Rp715
tp716
atp717
Rp718
I1
tp719
F0.0
s(g4
((lp720
(g25
I3
tp721
a(g20
g9
(g13
S'\x04\x00\x00\x00\x00\x00\x00\x00'
p722
tp723
Rp724
tp725
a(g6
I1
tp726
a(g8
g9
(g13
S'\xfd\xff\xff\xff\xff\xff\xff\xff'
p727
tp728
Rp729
tp730
a(g27
I0
tp731
atp732
Rp733
I0
tp734
F-1.0
s(g4
((lp735
(g20
g121
tp736
a(g6
I1
tp737
a(g8
g9
(g13
S'\xff\xff\xff\xff\xff\xff\xff\xff'
p738
tp739
Rp740
tp741
a(g25
I2
tp742
a(g27
I0
tp743
atp744
Rp745
I0
tp746
F0.03466731775632617
s(g4
((lp747
(g25
I1
tp748
a(g20
g219
tp749
a(g6
I1
tp750
a(g8
g9
(g13
S'\xff\xff\xff\xff\xff\xff\xff\xff'
p751
tp752
Rp753
tp754
a(g27
I0
tp755
atp756
Rp757
I1
tp758
F0.17117044313455942
s(g4
((lp759
(g6
I0
tp760
a(g20
g9
(g13
S'\x01\x00\x00\x00\x00\x00\x00\x00'
p761
tp762
Rp763
tp764
a(g27
I1
tp765
a(g25
I2
tp766
a(g8
g9
(g13
S'\x05\x00\x00\x00\x00\x00\x00\x00'
p767
tp768
Rp769
tp770
atp771
Rp772
I0
tp773
F0.0
s(g4
((lp774
(g6
I0
tp775
a(g20
g397
tp776
a(g25
I1
tp777
a(g8
g9
(g13
S'\x00\x00\x00\x00\x00\x00\x00\x00'
p778
tp779
Rp780
tp781
a(g27
I0
tp782
atp783
Rp784
I0
tp785
F0.06659762537407035
s(g4
((lp786
(g20
g274
tp787
a(g6
I1
tp788
a(g25
I0
tp789
a(g8
g9
(g13
S'\xff\xff\xff\xff\xff\xff\xff\xff'
p790
tp791
Rp792
tp793
a(g27
I0
tp794
atp795
Rp796
I0
tp797
F0.0005313193736884436
s(g4
((lp798
(g6
I0
tp799
a(g20
g9
(g13
S'\x01\x00\x00\x00\x00\x00\x00\x00'
p800
tp801
Rp802
tp803
a(g27
I1
tp804
a(g25
I2
tp805
a(g8
g9
(g13
S'\x04\x00\x00\x00\x00\x00\x00\x00'
p806
tp807
Rp808
tp809
atp810
Rp811
I1
tp812
F-1.0
s(g4
((lp813
(g6
I0
tp814
a(g20
g121
tp815
a(g25
I-1
tp816
a(g8
g9
(g13
S'\x00\x00\x00\x00\x00\x00\x00\x00'
p817
tp818
Rp819
tp820
a(g27
I0
tp821
atp822
Rp823
I0
tp824
F0.0005153996566378396
s(g4
((lp825
(g20
g121
tp826
a(g6
I1
tp827
a(g8
g9
(g13
S'\xfe\xff\xff\xff\xff\xff\xff\xff'
p828
tp829
Rp830
tp831
a(g25
I2
tp832
a(g27
I0
tp833
atp834
Rp835
I1
tp836
F0.0
s(g4
((lp837
(g6
I0
tp838
a(g20
g9
(g13
S'\x04\x00\x00\x00\x00\x00\x00\x00'
p839
tp840
Rp841
tp842
a(g25
I-1
tp843
a(g8
g9
(g13
S'\x01\x00\x00\x00\x00\x00\x00\x00'
p844
tp845
Rp846
tp847
a(g27
I0
tp848
atp849
Rp850
I0
tp851
F0.020972805544078304
s(g4
((lp852
(g6
I0
tp853
a(g20
g79
tp854
a(g27
I1
tp855
a(g8
g9
(g13
S'\x00\x00\x00\x00\x00\x00\x00\x00'
p856
tp857
Rp858
tp859
a(g25
I2
tp860
atp861
Rp862
I0
tp863
F0.05188017392791808
s(g4
((lp864
(g20
g397
tp865
a(g6
I1
tp866
a(g25
I0
tp867
a(g8
g9
(g13
S'\xff\xff\xff\xff\xff\xff\xff\xff'
p868
tp869
Rp870
tp871
a(g27
I0
tp872
atp873
Rp874
I0
tp875
F0.4263973615149873
s(g4
((lp876
(g6
I0
tp877
a(g20
g9
(g13
S'\x04\x00\x00\x00\x00\x00\x00\x00'
p878
tp879
Rp880
tp881
a(g8
g9
(g13
S'\xff\xff\xff\xff\xff\xff\xff\xff'
p882
tp883
Rp884
tp885
a(g25
I2
tp886
a(g27
I0
tp887
atp888
Rp889
I1
tp890
F0.01140603775515192
s(g4
((lp891
(g6
I0
tp892
a(g20
g63
tp893
a(g8
g9
(g13
S'\x02\x00\x00\x00\x00\x00\x00\x00'
p894
tp895
Rp896
tp897
a(g25
I2
tp898
a(g27
I0
tp899
atp900
Rp901
I0
tp902
F-0.0061194747630262366
s(g4
((lp903
(g6
I0
tp904
a(g20
g802
tp905
a(g25
I3
tp906
a(g27
I1
tp907
a(g8
g9
(g13
S'\x04\x00\x00\x00\x00\x00\x00\x00'
p908
tp909
Rp910
tp911
atp912
Rp913
I1
tp914
F0.0
s(g4
((lp915
(g6
I0
tp916
a(g20
g9
(g13
S'\x01\x00\x00\x00\x00\x00\x00\x00'
p917
tp918
Rp919
tp920
a(g25
I1
tp921
a(g8
g9
(g13
S'\x04\x00\x00\x00\x00\x00\x00\x00'
p922
tp923
Rp924
tp925
a(g27
I0
tp926
atp927
Rp928
I0
tp929
F0.0
s(g913
I0
tp930
F0.0
s(g4
((lp931
(g20
g140
tp932
a(g6
I1
tp933
a(g8
g9
(g13
S'\xff\xff\xff\xff\xff\xff\xff\xff'
p934
tp935
Rp936
tp937
a(g25
I2
tp938
a(g27
I0
tp939
atp940
Rp941
I0
tp942
F0.0742759144988962
s(g4
((lp943
(g6
I0
tp944
a(g20
g9
(g13
S'\x01\x00\x00\x00\x00\x00\x00\x00'
p945
tp946
Rp947
tp948
a(g27
I1
tp949
a(g25
I2
tp950
a(g8
g9
(g13
S'\x03\x00\x00\x00\x00\x00\x00\x00'
p951
tp952
Rp953
tp954
atp955
Rp956
I1
tp957
F-2.3861030341650844
s(g4
((lp958
(g6
I0
tp959
a(g20
g190
tp960
a(g8
g9
(g13
S'\x01\x00\x00\x00\x00\x00\x00\x00'
p961
tp962
Rp963
tp964
a(g27
I1
tp965
a(g25
I2
tp966
atp967
Rp968
I0
tp969
F-0.18358551027136027
s(g4
((lp970
(g20
g121
tp971
a(g25
I1
tp972
a(g6
I1
tp973
a(g8
g9
(g13
S'\xfc\xff\xff\xff\xff\xff\xff\xff'
p974
tp975
Rp976
tp977
a(g27
I0
tp978
atp979
Rp980
I0
tp981
F-1.0
s(g4
((lp982
(g6
I0
tp983
a(g20
g9
(g13
S'\x04\x00\x00\x00\x00\x00\x00\x00'
p984
tp985
Rp986
tp987
a(g8
g9
(g13
S'\xfe\xff\xff\xff\xff\xff\xff\xff'
p988
tp989
Rp990
tp991
a(g25
I0
tp992
a(g27
I0
tp993
atp994
Rp995
I0
tp996
F0.07455219207157439
s(g42
I0
tp997
F0.06539637185195013
s(g4
((lp998
(g6
I0
tp999
a(g20
g9
(g13
S'\x01\x00\x00\x00\x00\x00\x00\x00'
p1000
tp1001
Rp1002
tp1003
a(g27
I1
tp1004
a(g8
g9
(g13
S'\x05\x00\x00\x00\x00\x00\x00\x00'
p1005
tp1006
Rp1007
tp1008
a(g25
I3
tp1009
atp1010
Rp1011
I0
tp1012
F0.0
s(g184
I0
tp1013
F-0.029633203809082027
s(g4
((lp1014
(g6
I0
tp1015
a(g20
g554
tp1016
a(g8
g9
(g13
S'\x01\x00\x00\x00\x00\x00\x00\x00'
p1017
tp1018
Rp1019
tp1020
a(g27
I1
tp1021
a(g25
I-1
tp1022
atp1023
Rp1024
I0
tp1025
F-0.00016630860700233945
s(g4
((lp1026
(g6
I0
tp1027
a(g20
g539
tp1028
a(g25
I-1
tp1029
a(g27
I1
tp1030
a(g8
g9
(g13
S'\x00\x00\x00\x00\x00\x00\x00\x00'
p1031
tp1032
Rp1033
tp1034
atp1035
Rp1036
I1
tp1037
F0.0
s(g115
I1
tp1038
F-0.5
s(g4
((lp1039
(g25
I1
tp1040
a(g20
g140
tp1041
a(g6
I1
tp1042
a(g8
g9
(g13
S'\xfd\xff\xff\xff\xff\xff\xff\xff'
p1043
tp1044
Rp1045
tp1046
a(g27
I0
tp1047
atp1048
Rp1049
I1
tp1050
F0.009334494317713993
s(g784
I1
tp1051
F0.0
s(g4
((lp1052
(g6
I0
tp1053
a(g20
g461
tp1054
a(g27
I1
tp1055
a(g8
g9
(g13
S'\x00\x00\x00\x00\x00\x00\x00\x00'
p1056
tp1057
Rp1058
tp1059
a(g25
I3
tp1060
atp1061
Rp1062
I1
tp1063
F0.0
s(g4
((lp1064
(g6
I0
tp1065
a(g20
g501
tp1066
a(g25
I-1
tp1067
a(g27
I1
tp1068
a(g8
g9
(g13
S'\x01\x00\x00\x00\x00\x00\x00\x00'
p1069
tp1070
Rp1071
tp1072
atp1073
Rp1074
I0
tp1075
F0.014552732206837287
s(g224
I0
tp1076
F0.021460012088388193
s(g254
I1
tp1077
F0.16601696261207477
s(g4
((lp1078
(g6
I0
tp1079
a(g8
g9
(g13
S'\x03\x00\x00\x00\x00\x00\x00\x00'
p1080
tp1081
Rp1082
tp1083
a(g20
g329
tp1084
a(g27
I1
tp1085
a(g25
I2
tp1086
atp1087
Rp1088
I0
tp1089
F-0.0792
s(g1074
I1
tp1090
F0.0
s(g772
I1
tp1091
F0.0
s(g431
I1
tp1092
F0.0
s(g630
I0
tp1093
F0.0
s(g4
((lp1094
(g8
g9
(g13
S'\xfb\xff\xff\xff\xff\xff\xff\xff'
p1095
tp1096
Rp1097
tp1098
a(g25
I1
tp1099
a(g20
g140
tp1100
a(g6
I1
tp1101
a(g27
I0
tp1102
atp1103
Rp1104
I1
tp1105
F0.0
s(g4
((lp1106
(g8
g9
(g13
S'\xfb\xff\xff\xff\xff\xff\xff\xff'
p1107
tp1108
Rp1109
tp1110
a(g20
g724
tp1111
a(g6
I1
tp1112
a(g25
I2
tp1113
a(g27
I0
tp1114
atp1115
Rp1116
I0
tp1117
F0.0
s(g343
I1
tp1118
F-0.03085191775021805
s(g811
I0
tp1119
F-1.021976
s(g364
I0
tp1120
F0.05745478921364151
s(g4
((lp1121
(g6
I0
tp1122
a(g8
g9
(g13
S'\xfc\xff\xff\xff\xff\xff\xff\xff'
p1123
tp1124
Rp1125
tp1126
a(g20
g9
(g13
S'\x04\x00\x00\x00\x00\x00\x00\x00'
p1127
tp1128
Rp1129
tp1130
a(g25
I3
tp1131
a(g27
I0
tp1132
atp1133
Rp1134
I0
tp1135
F0.005589874395825088
s(g4
((lp1136
(g6
I0
tp1137
a(g20
g9
(g13
S'\x01\x00\x00\x00\x00\x00\x00\x00'
p1138
tp1139
Rp1140
tp1141
a(g27
I1
tp1142
a(g8
g9
(g13
S'\x05\x00\x00\x00\x00\x00\x00\x00'
p1143
tp1144
Rp1145
tp1146
a(g25
I1
tp1147
atp1148
Rp1149
I1
tp1150
F0.0
s(g835
I0
tp1151
F0.007655501196713609
s(g406
I0
tp1152
F0.018290122278009715
s(g4
((lp1153
(g6
I0
tp1154
a(g20
g245
tp1155
a(g27
I1
tp1156
a(g8
g9
(g13
S'\x00\x00\x00\x00\x00\x00\x00\x00'
p1157
tp1158
Rp1159
tp1160
a(g25
I1
tp1161
atp1162
Rp1163
I0
tp1164
F0.25283170096228375
s(g862
I1
tp1165
F0.0
s(g443
I0
tp1166
F-1.0
s(g4
((lp1167
(g8
g9
(g13
S'\xfc\xff\xff\xff\xff\xff\xff\xff'
p1168
tp1169
Rp1170
tp1171
a(g20
g274
tp1172
a(g6
I1
tp1173
a(g25
I3
tp1174
a(g27
I0
tp1175
atp1176
Rp1177
I0
tp1178
F-1.0
s(g4
((lp1179
(g6
I0
tp1180
a(g25
I0
tp1181
a(g20
g79
tp1182
a(g27
I1
tp1183
a(g8
g9
(g13
S'\x01\x00\x00\x00\x00\x00\x00\x00'
p1184
tp1185
Rp1186
tp1187
atp1188
Rp1189
I0
tp1190
F0.5183827663049575
s(g482
I0
tp1191
F0.0325653587659371
s(g4
((lp1192
(g6
I0
tp1193
a(g20
g140
tp1194
a(g8
g9
(g13
S'\x00\x00\x00\x00\x00\x00\x00\x00'
p1195
tp1196
Rp1197
tp1198
a(g25
I2
tp1199
a(g27
I0
tp1200
atp1201
Rp1202
I0
tp1203
F0.07018063428949024
s(g509
I0
tp1204
F0.0
s(g941
I1
tp1205
F0.012688599446964361
s(g4
((lp1206
(g25
I1
tp1207
a(g20
g140
tp1208
a(g6
I1
tp1209
a(g8
g9
(g13
S'\xfe\xff\xff\xff\xff\xff\xff\xff'
p1210
tp1211
Rp1212
tp1213
a(g27
I0
tp1214
atp1215
Rp1216
I1
tp1217
F0.12673806315341643
s(g533
I0
tp1218
F0.6596406826624557
s(g4
((lp1219
(g6
I0
tp1220
a(g20
g539
tp1221
a(g25
I2
tp1222
a(g8
g9
(g13
S'\xfd\xff\xff\xff\xff\xff\xff\xff'
p1223
tp1224
Rp1225
tp1226
a(g27
I0
tp1227
atp1228
Rp1229
I1
tp1230
F0.00550766422178433
s(g563
I0
tp1231
F0.4679499689629611
s(g4
((lp1232
(g6
I0
tp1233
a(g8
g9
(g13
S'\x03\x00\x00\x00\x00\x00\x00\x00'
p1234
tp1235
Rp1236
tp1237
a(g20
g383
tp1238
a(g25
I2
tp1239
a(g27
I0
tp1240
atp1241
Rp1242
I1
tp1243
F0.0
s(g4
((lp1244
(g6
I0
tp1245
a(g25
I1
tp1246
a(g20
g274
tp1247
a(g8
g9
(g13
S'\xfe\xff\xff\xff\xff\xff\xff\xff'
p1248
tp1249
Rp1250
tp1251
a(g27
I0
tp1252
atp1253
Rp1254
I0
tp1255
F-0.398587308472319
s(g4
((lp1256
(g6
I0
tp1257
a(g8
g9
(g13
S'\x03\x00\x00\x00\x00\x00\x00\x00'
p1258
tp1259
Rp1260
tp1261
a(g20
g329
tp1262
a(g27
I1
tp1263
a(g25
I1
tp1264
atp1265
Rp1266
I1
tp1267
F-1.5077176385994908
s(g4
((lp1268
(g6
I0
tp1269
a(g20
g397
tp1270
a(g8
I1
tp1271
a(g25
I3
tp1272
a(g27
I0
tp1273
atp1274
Rp1275
I1
tp1276
F-0.007685062826875182
s(g4
((lp1277
(g6
I0
tp1278
a(g20
g501
tp1279
a(g8
g9
(g13
S'\x02\x00\x00\x00\x00\x00\x00\x00'
p1280
tp1281
Rp1282
tp1283
a(g27
I1
tp1284
a(g25
I-1
tp1285
atp1286
Rp1287
I1
tp1288
F0.0
s(g4
((lp1289
(g6
I0
tp1290
a(g20
g274
tp1291
a(g8
g9
(g13
S'\xff\xff\xff\xff\xff\xff\xff\xff'
p1292
tp1293
Rp1294
tp1295
a(g25
I0
tp1296
a(g27
I0
tp1297
atp1298
Rp1299
I0
tp1300
F0.3841494947249043
s(g591
I1
tp1301
F0.0
s(g4
((lp1302
(g6
I0
tp1303
a(g20
g397
tp1304
a(g8
g9
(g13
S'\x01\x00\x00\x00\x00\x00\x00\x00'
p1305
tp1306
Rp1307
tp1308
a(g25
I2
tp1309
a(g27
I0
tp1310
atp1311
Rp1312
I1
tp1313
F-0.1297867572478339
s(g618
I1
tp1314
F1.3719527996873276e-05
s(g4
((lp1315
(g20
g554
tp1316
a(g6
I1
tp1317
a(g8
g9
(g13
S'\xff\xff\xff\xff\xff\xff\xff\xff'
p1318
tp1319
Rp1320
tp1321
a(g25
I3
tp1322
a(g27
I0
tp1323
atp1324
Rp1325
I1
tp1326
F0.0
s(g4
((lp1327
(g20
g724
tp1328
a(g6
I1
tp1329
a(g25
I2
tp1330
a(g8
g9
(g13
S'\xfd\xff\xff\xff\xff\xff\xff\xff'
p1331
tp1332
Rp1333
tp1334
a(g27
I0
tp1335
atp1336
Rp1337
I0
tp1338
F-1.0
s(g4
((lp1339
(g20
g274
tp1340
a(g6
I1
tp1341
a(g25
I0
tp1342
a(g8
g9
(g13
S'\xfe\xff\xff\xff\xff\xff\xff\xff'
p1343
tp1344
Rp1345
tp1346
a(g27
I0
tp1347
atp1348
Rp1349
I0
tp1350
F-0.5
s(g4
((lp1351
(g20
g397
tp1352
a(g6
I1
tp1353
a(g25
I0
tp1354
a(g8
g9
(g13
S'\xfd\xff\xff\xff\xff\xff\xff\xff'
p1355
tp1356
Rp1357
tp1358
a(g27
I0
tp1359
atp1360
Rp1361
I1
tp1362
F0.0
s(g4
((lp1363
(g6
I0
tp1364
a(g20
g121
tp1365
a(g25
I-1
tp1366
a(g8
g9
(g13
S'\xfe\xff\xff\xff\xff\xff\xff\xff'
p1367
tp1368
Rp1369
tp1370
a(g27
I0
tp1371
atp1372
Rp1373
I1
tp1374
F0.0
s(g4
((lp1375
(g6
I0
tp1376
a(g20
g121
tp1377
a(g8
g9
(g13
S'\xff\xff\xff\xff\xff\xff\xff\xff'
p1378
tp1379
Rp1380
tp1381
a(g25
I2
tp1382
a(g27
I0
tp1383
atp1384
Rp1385
I1
tp1386
F0.0
s(g4
((lp1387
(g8
g9
(g13
S'\xfc\xff\xff\xff\xff\xff\xff\xff'
p1388
tp1389
Rp1390
tp1391
a(g20
g724
tp1392
a(g6
I1
tp1393
a(g25
I2
tp1394
a(g27
I0
tp1395
atp1396
Rp1397
I0
tp1398
F-1.0
s(g4
((lp1399
(g6
I0
tp1400
a(g8
g9
(g13
S'\x04\x00\x00\x00\x00\x00\x00\x00'
p1401
tp1402
Rp1403
tp1404
a(g20
g9
(g13
S'\x04\x00\x00\x00\x00\x00\x00\x00'
p1405
tp1406
Rp1407
tp1408
a(g27
I1
tp1409
a(g25
I1
tp1410
atp1411
Rp1412
I0
tp1413
F-0.5
s(g718
I0
tp1414
F0.014367839526268255
s(g4
((lp1415
(g25
I3
tp1416
a(g20
g371
tp1417
a(g6
I1
tp1418
a(g8
g9
(g13
S'\xfe\xff\xff\xff\xff\xff\xff\xff'
p1419
tp1420
Rp1421
tp1422
a(g27
I0
tp1423
atp1424
Rp1425
I0
tp1426
F-0.8979526769969789
s(g745
I1
tp1427
F0.0
s(g391
I1
tp1428
F-0.14959255406080005
s(g239
I1
tp1429
F-4.523181222002587
s(g419
I0
tp1430
F0.1899511958238778
s(g4
((lp1431
(g6
I0
tp1432
a(g20
g190
tp1433
a(g8
g9
(g13
S'\x01\x00\x00\x00\x00\x00\x00\x00'
p1434
tp1435
Rp1436
tp1437
a(g27
I1
tp1438
a(g25
I3
tp1439
atp1440
Rp1441
I0
tp1442
F-0.04158029559424302
s(g4
((lp1443
(g20
g397
tp1444
a(g25
I-1
tp1445
a(g6
I1
tp1446
a(g8
g9
(g13
S'\xfd\xff\xff\xff\xff\xff\xff\xff'
p1447
tp1448
Rp1449
tp1450
a(g27
I0
tp1451
atp1452
Rp1453
I1
tp1454
F0.0
s(g4
((lp1455
(g6
I0
tp1456
a(g20
g9
(g13
S'\x04\x00\x00\x00\x00\x00\x00\x00'
p1457
tp1458
Rp1459
tp1460
a(g8
g9
(g13
S'\xfe\xff\xff\xff\xff\xff\xff\xff'
p1461
tp1462
Rp1463
tp1464
a(g25
I2
tp1465
a(g27
I0
tp1466
atp1467
Rp1468
I0
tp1469
F0.06227762564448032
s(g1266
I0
tp1470
F-1.8145364
s(g874
I1
tp1471
F0.0
s(g4
((lp1472
(g6
I0
tp1473
a(g20
g121
tp1474
a(g27
I1
tp1475
a(g8
g9
(g13
S'\x00\x00\x00\x00\x00\x00\x00\x00'
p1476
tp1477
Rp1478
tp1479
a(g25
I1
tp1480
atp1481
Rp1482
I1
tp1483
F0.0
s(g4
((lp1484
(g6
I0
tp1485
a(g8
g9
(g13
S'\x03\x00\x00\x00\x00\x00\x00\x00'
p1486
tp1487
Rp1488
tp1489
a(g20
g383
tp1490
a(g27
I1
tp1491
a(g25
I-1
tp1492
atp1493
Rp1494
I0
tp1495
F0.0
s(g4
((lp1496
(g6
I0
tp1497
a(g20
g597
tp1498
a(g8
g9
(g13
S'\x02\x00\x00\x00\x00\x00\x00\x00'
p1499
tp1500
Rp1501
tp1502
a(g27
I1
tp1503
a(g25
I2
tp1504
atp1505
Rp1506
I0
tp1507
F-1.0192534354574385
s(g928
I1
tp1508
F0.0
s(g4
((lp1509
(g6
I0
tp1510
a(g25
I3
tp1511
a(g20
g79
tp1512
a(g8
g9
(g13
S'\xfd\xff\xff\xff\xff\xff\xff\xff'
p1513
tp1514
Rp1515
tp1516
a(g27
I0
tp1517
atp1518
Rp1519
I0
tp1520
F0.03201240623531439
s(g4
((lp1521
(g6
I0
tp1522
a(g20
g121
tp1523
a(g25
I1
tp1524
a(g8
g9
(g13
S'\xff\xff\xff\xff\xff\xff\xff\xff'
p1525
tp1526
Rp1527
tp1528
a(g27
I0
tp1529
atp1530
Rp1531
I0
tp1532
F0.20527937506945046
s(g4
((lp1533
(g20
g397
tp1534
a(g25
I1
tp1535
a(g6
I1
tp1536
a(g8
g9
(g13
S'\xff\xff\xff\xff\xff\xff\xff\xff'
p1537
tp1538
Rp1539
tp1540
a(g27
I0
tp1541
atp1542
Rp1543
I1
tp1544
F0.0
s(g4
((lp1545
(g6
I0
tp1546
a(g20
g802
tp1547
a(g8
g9
(g13
S'\x01\x00\x00\x00\x00\x00\x00\x00'
p1548
tp1549
Rp1550
tp1551
a(g25
I0
tp1552
a(g27
I1
tp1553
atp1554
Rp1555
I1
tp1556
F0.0
s(g1216
I0
tp1557
F-1.0
s(g4
((lp1558
(g6
I0
tp1559
a(g20
g501
tp1560
a(g8
g9
(g13
S'\x02\x00\x00\x00\x00\x00\x00\x00'
p1561
tp1562
Rp1563
tp1564
a(g25
I-1
tp1565
a(g27
I0
tp1566
atp1567
Rp1568
I0
tp1569
F0.0019125824243201972
s(g1011
I1
tp1570
F0.0
s(g694
I0
tp1571
F-0.42998684
s(g4
((lp1572
(g6
I0
tp1573
a(g8
g9
(g13
S'\x03\x00\x00\x00\x00\x00\x00\x00'
p1574
tp1575
Rp1576
tp1577
a(g20
g383
tp1578
a(g27
I1
tp1579
a(g25
I3
tp1580
atp1581
Rp1582
I1
tp1583
F0.0
s(g4
((lp1584
(g6
I0
tp1585
a(g20
g802
tp1586
a(g25
I-1
tp1587
a(g8
g9
(g13
S'\x02\x00\x00\x00\x00\x00\x00\x00'
p1588
tp1589
Rp1590
tp1591
a(g27
I1
tp1592
atp1593
Rp1594
I1
tp1595
F0.0
s(g4
((lp1596
(g20
g9
(g13
S'\x01\x00\x00\x00\x00\x00\x00\x00'
p1597
tp1598
Rp1599
tp1600
a(g25
I1
tp1601
a(g6
I1
tp1602
a(g8
g9
(g13
S'\xfe\xff\xff\xff\xff\xff\xff\xff'
p1603
tp1604
Rp1605
tp1606
a(g27
I0
tp1607
atp1608
Rp1609
I0
tp1610
F-0.48187348569536
s(g1036
I0
tp1611
F0.017782469907632253
s(g334
I0
tp1612
F-0.5
s(g1312
I0
tp1613
F-0.0986116465575842
s(g4
((lp1614
(g20
g274
tp1615
a(g6
I1
tp1616
a(g8
g9
(g13
S'\xfe\xff\xff\xff\xff\xff\xff\xff'
p1617
tp1618
Rp1619
tp1620
a(g25
I-1
tp1621
a(g27
I0
tp1622
atp1623
Rp1624
I0
tp1625
F-0.9999975708162672
s(g1049
I0
tp1626
F-0.5
s(g4
((lp1627
(g6
I0
tp1628
a(g8
g9
(g13
S'\xfc\xff\xff\xff\xff\xff\xff\xff'
p1629
tp1630
Rp1631
tp1632
a(g20
g841
tp1633
a(g25
I2
tp1634
a(g27
I0
tp1635
atp1636
Rp1637
I0
tp1638
F0.010204092074520901
s(g1062
I0
tp1639
F-0.008574602766466214
s(g796
I1
tp1640
F0.5102679939303341
s(g4
((lp1641
(g6
I0
tp1642
a(g20
g461
tp1643
a(g8
g9
(g13
S'\x01\x00\x00\x00\x00\x00\x00\x00'
p1644
tp1645
Rp1646
tp1647
a(g27
I1
tp1648
a(g25
I1
tp1649
atp1650
Rp1651
I0
tp1652
F-0.5
s(g4
((lp1653
(g20
g554
tp1654
a(g6
I1
tp1655
a(g25
I2
tp1656
a(g8
g9
(g13
S'\xfd\xff\xff\xff\xff\xff\xff\xff'
p1657
tp1658
Rp1659
tp1660
a(g27
I0
tp1661
atp1662
Rp1663
I1
tp1664
F0.0
s(g4
((lp1665
(g20
g121
tp1666
a(g25
I1
tp1667
a(g6
I1
tp1668
a(g8
g9
(g13
S'\xfd\xff\xff\xff\xff\xff\xff\xff'
p1669
tp1670
Rp1671
tp1672
a(g27
I0
tp1673
atp1674
Rp1675
I0
tp1676
F-1.0
s(g470
I0
tp1677
F0.32665742075225007
s(g4
((lp1678
(g6
I0
tp1679
a(g20
g48
tp1680
a(g25
I3
tp1681
a(g27
I1
tp1682
a(g8
g9
(g13
S'\x03\x00\x00\x00\x00\x00\x00\x00'
p1683
tp1684
Rp1685
tp1686
atp1687
Rp1688
I0
tp1689
F-0.09784425189478402
s(g1088
I1
tp1690
F-0.17420371444480004
s(g1397
I1
tp1691
F0.007064857109322696
s(g1134
I1
tp1692
F0.0
s(g1163
I1
tp1693
F0.041707079216023804
s(g72
I1
tp1694
F-0.6112800000000002
s(g4
((lp1695
(g6
I0
tp1696
a(g20
g245
tp1697
a(g25
I-1
tp1698
a(g8
g9
(g13
S'\x00\x00\x00\x00\x00\x00\x00\x00'
p1699
tp1700
Rp1701
tp1702
a(g27
I0
tp1703
atp1704
Rp1705
I0
tp1706
F0.024922543608517787
s(g1104
I0
tp1707
F0.0
s(g1116
I1
tp1708
F0.0
s(g4
((lp1709
(g6
I0
tp1710
a(g25
I3
tp1711
a(g20
g79
tp1712
a(g8
g9
(g13
S'\x02\x00\x00\x00\x00\x00\x00\x00'
p1713
tp1714
Rp1715
tp1716
a(g27
I1
tp1717
atp1718
Rp1719
I0
tp1720
F-0.004157915212013017
s(g1412
I1
tp1721
F0.0
s(g4
((lp1722
(g25
I3
tp1723
a(g20
g37
tp1724
a(g6
I1
tp1725
a(g8
I-1
tp1726
a(g27
I0
tp1727
atp1728
Rp1729
I0
tp1730
F0.061222005482191824
s(g995
I1
tp1731
F0.0
s(g130
I0
tp1732
F-0.011726839949263471
s(g157
I1
tp1733
F0.0
s(g823
I1
tp1734
F0.0
s(g1177
I1
tp1735
F0.013776191422813775
s(g1189
I1
tp1736
F-1.1748549902074967
s(g1024
I1
tp1737
F0.0
s(g1202
I1
tp1738
F0.00491909986594501
s(g1705
I1
tp1739
F0.0027107492450575135
s(g1149
I0
tp1740
F0.0
s(g1229
I0
tp1741
F0.043218433684355365
s(g199
I0
tp1742
F0.013154924160000001
s(g1242
I0
tp1743
F0.0
s(g1254
I1
tp1744
F0.13862682358150102
s(g294
I1
tp1745
F0.2556066952339705
s(g306
I1
tp1746
F-0.005349263128787125
s(g1275
I0
tp1747
F-0.008935196348435918
s(g1299
I1
tp1748
F0.0
s(g355
I0
tp1749
F0.022102666674506166
s(g1325
I0
tp1750
F0.005855316027752607
s(g376
I0
tp1751
F0.05049129599333235
s(g1337
I1
tp1752
F0.04335344225650807
s(g4
((lp1753
(g6
I0
tp1754
a(g20
g79
tp1755
a(g25
I1
tp1756
a(g8
g9
(g13
S'\x00\x00\x00\x00\x00\x00\x00\x00'
p1757
tp1758
Rp1759
tp1760
a(g27
I0
tp1761
atp1762
Rp1763
I0
tp1764
F0.29807879499469125
s(g1287
I0
tp1765
F0.0005928079826122798
s(g1624
I1
tp1766
F0.035220383273319715
s(g1609
I1
tp1767
F0.09748597740575222
s(g1361
I0
tp1768
F0.0
s(g455
I0
tp1769
F0.025469582890780194
s(g4
((lp1770
(g6
I0
tp1771
a(g20
g121
tp1772
a(g8
g9
(g13
S'\xff\xff\xff\xff\xff\xff\xff\xff'
p1773
tp1774
Rp1775
tp1776
a(g25
I3
tp1777
a(g27
I0
tp1778
atp1779
Rp1780
I1
tp1781
F0.0
s(g1373
I0
tp1782
F0.0
s(g494
I0
tp1783
F0.0
s(g1385
I0
tp1784
F-0.0003588403205940577
s(g548
I0
tp1785
F0.037277719484575624
s(g1425
I1
tp1786
F0.059923193121090235
s(g1719
I1
tp1787
F0.0
s(g87
I0
tp1788
F0.057420709162218225
s(g956
I0
tp1789
F-1.6543258355324142
s(g1494
I1
tp1790
F0.0
s(g1441
I1
tp1791
F-0.11746204128660369
s(g579
I1
tp1792
F-3.2974728
s(g606
I0
tp1793
F-0.003200000000000001
s(g1453
I0
tp1794
F-1.0
s(g1468
I1
tp1795
F0.0
s(g642
I0
tp1796
F-0.5
s(g1482
I0
tp1797
F0.020333377678167692
s(g1506
I1
tp1798
F-1.525708388244807
s(g670
I0
tp1799
F-1.0
s(g1519
I1
tp1800
F0.0
s(g1531
I1
tp1801
F0.0
s(g682
I1
tp1802
F0.07968574947199021
s(g706
I1
tp1803
F-2.124971625128902
s(g1543
I0
tp1804
F0.10984561423752523
s(g267
I1
tp1805
F0.0
s(g1555
I0
tp1806
F0.12448872116386647
s(g657
I0
tp1807
F0.015674729234159714
s(g1568
I1
tp1808
F0.0
s(g733
I1
tp1809
F0.03631126581439556
s(g319
I1
tp1810
F0.0
s(g757
I0
tp1811
F-0.24346931844099098
s(g1594
I0
tp1812
F-1.0
s(g1582
I0
tp1813
F0.0
s(g1349
I1
tp1814
F0.1560871356869739
s(g212
I0
tp1815
F0.00015125779616552784
s(g850
I1
tp1816
F0.0
s(g1637
I1
tp1817
F0.0
s(g1763
I1
tp1818
F0.03686481579304109
s(g4
((lp1819
(g6
I0
tp1820
a(g20
g554
tp1821
a(g25
I-1
tp1822
a(g27
I1
tp1823
a(g8
g9
(g13
S'\x00\x00\x00\x00\x00\x00\x00\x00'
p1824
tp1825
Rp1826
tp1827
atp1828
Rp1829
I1
tp1830
F4.7441339307035006e-05
s(g901
I1
tp1831
F-0.011756160000000003
s(g1651
I1
tp1832
F-0.29350683917408504
s(g1829
I0
tp1833
F-0.00223341506658891
s(g1663
I0
tp1834
F0.0
s(g889
I0
tp1835
F0.08745353631857826
s(g1675
I1
tp1836
F0.0
s(g1780
I0
tp1837
F0.001027185616379903
s(g1688
I1
tp1838
F-0.11609804748134084
s(g968
I1
tp1839
F-0.20982429879462955
s(g980
I1
tp1840
F0.0
s(g1729
I1
tp1841
F0.011159486991937966
s.