ccollections
defaultdict
p0
(c__builtin__
float
p1
tp2
Rp3
(c__builtin__
frozenset
p4
((lp5
(S'relative_x'
p6
I3
tp7
a(S'gravity'
p8
I4
tp9
a(S'vel'
p10
I-1
tp11
a(S'relative_y'
p12
I0
tp13
atp14
Rp15
I1
tp16
F0.0
s(g4
((lp17
(g6
I1
tp18
a(g8
I4
tp19
a(g10
I-10
tp20
a(g12
I-2
tp21
atp22
Rp23
I0
tp24
F-1.0
s(g4
((lp25
(g8
I4
tp26
a(g10
I3
tp27
a(g12
I-3
tp28
a(g6
I1
tp29
atp30
Rp31
I1
tp32
F0.0
s(g4
((lp33
(g8
I4
tp34
a(g12
I0
tp35
a(g6
I2
tp36
a(g10
I-6
tp37
atp38
Rp39
I0
tp40
F0.0
s(g4
((lp41
(g8
I4
tp42
a(g10
I-10
tp43
a(g12
I-3
tp44
a(g6
I1
tp45
atp46
Rp47
I1
tp48
F-0.95
s(g4
((lp49
(g8
I4
tp50
a(g6
I2
tp51
a(g10
I-7
tp52
a(g12
I-1
tp53
atp54
Rp55
I1
tp56
F0.0
s(g4
((lp57
(g10
I-8
tp58
a(g8
I4
tp59
a(g6
I1
tp60
a(g12
I-2
tp61
atp62
Rp63
I0
tp64
F0.0
s(g4
((lp65
(g10
I-9
tp66
a(g8
I4
tp67
a(g6
I1
tp68
a(g12
I-1
tp69
atp70
Rp71
I0
tp72
F0.0
s(g4
((lp73
(g8
I4
tp74
a(g10
I-5
tp75
a(g12
I1
tp76
a(g6
I2
tp77
atp78
Rp79
I1
tp80
F0.0
s(g4
((lp81
(g10
I0
tp82
a(g8
I4
tp83
a(g12
I0
tp84
a(g6
I3
tp85
atp86
Rp87
I1
tp88
F0.0
s(g4
((lp89
(g12
I-4
tp90
a(g10
I-11
tp91
a(g8
I4
tp92
a(g6
I1
tp93
atp94
Rp95
I0
tp96
F0.0
s(g4
((lp97
(g6
I3
tp98
a(g8
I4
tp99
a(g10
I-1
tp100
a(g12
I1
tp101
atp102
Rp103
I1
tp104
F0.0
s(g4
((lp105
(g8
I4
tp106
a(g6
I1
tp107
a(g12
I-3
tp108
a(g10
I2
tp109
atp110
Rp111
I0
tp112
F0.0
s(g71
I1
tp113
F0.0
s(g15
I0
tp114
F0.0
s(g31
I0
tp115
F0.0
s(g4
((lp116
(g10
I-3
tp117
a(g8
I4
tp118
a(g6
I2
tp119
a(g12
I0
tp120
atp121
Rp122
I1
tp123
F0.0
s(g4
((lp124
(g10
I-11
tp125
a(g8
I4
tp126
a(g12
I-3
tp127
a(g6
I1
tp128
atp129
Rp130
I0
tp131
F0.0
s(g4
((lp132
(g8
I4
tp133
a(g10
I-2
tp134
a(g12
I0
tp135
a(g6
I2
tp136
atp137
Rp138
I0
tp139
F0.0
s(g55
I0
tp140
F0.0
s(g4
((lp141
(g10
I-9
tp142
a(g8
I4
tp143
a(g12
I-3
tp144
a(g6
I1
tp145
atp146
Rp147
I1
tp148
F0.0
s(g4
((lp149
(g10
I-8
tp150
a(g8
I4
tp151
a(g6
I1
tp152
a(g12
I-1
tp153
atp154
Rp155
I1
tp156
F0.0
s(g87
I0
tp157
F0.0
s(g39
I1
tp158
F0.0
s(g95
I1
tp159
F0.0
s(g4
((lp160
(g8
I4
tp161
a(g10
I-2
tp162
a(g12
I1
tp163
a(g6
I2
tp164
atp165
Rp166
I1
tp167
F0.0
s(g4
((lp168
(g10
I0
tp169
a(g8
I4
tp170
a(g12
I1
tp171
a(g6
I3
tp172
atp173
Rp174
I0
tp175
F0.0
s(g4
((lp176
(g8
I4
tp177
a(g10
I-5
tp178
a(g12
I0
tp179
a(g6
I2
tp180
atp181
Rp182
I1
tp183
F0.0
s(g4
((lp184
(g8
I4
tp185
a(g6
I2
tp186
a(g12
I0
tp187
a(g10
I-7
tp188
atp189
Rp190
I1
tp191
F0.0
s(g122
I0
tp192
F0.0
s(g138
I1
tp193
F0.0
s(g111
I1
tp194
F0.0
s(g4
((lp195
(g8
I4
tp196
a(g10
I-5
tp197
a(g6
I2
tp198
a(g12
I-1
tp199
atp200
Rp201
I1
tp202
F0.0
s(g147
I0
tp203
F0.0
s(g4
((lp204
(g8
I4
tp205
a(g10
I-4
tp206
a(g6
I2
tp207
a(g12
I0
tp208
atp209
Rp210
I0
tp211
F0.0
s(g4
((lp212
(g10
I-9
tp213
a(g8
I4
tp214
a(g6
I1
tp215
a(g12
I-2
tp216
atp217
Rp218
I0
tp219
F-0.04000000000000001
s(g4
((lp220
(g8
I4
tp221
a(g12
I1
tp222
a(g10
I-4
tp223
a(g6
I2
tp224
atp225
Rp226
I1
tp227
F0.0
s(g166
I0
tp228
F0.0
s(g4
((lp229
(g8
I4
tp230
a(g12
I-1
tp231
a(g6
I2
tp232
a(g10
I-6
tp233
atp234
Rp235
I0
tp236
F0.0
s(g174
I1
tp237
F0.0
s(g182
I0
tp238
F0.0
s(g4
((lp239
(g10
I-3
tp240
a(g12
I1
tp241
a(g8
I4
tp242
a(g6
I2
tp243
atp244
Rp245
I0
tp246
F0.0
s(g190
I0
tp247
F0.0
s(g245
I1
tp248
F0.0
s(g155
I0
tp249
F0.0
s(g23
I1
tp250
F0.0
s(g79
I0
tp251
F0.0
s(g201
I0
tp252
F0.0
s(g47
I0
tp253
F-1.0
s(g210
I1
tp254
F0.0
s(g218
I1
tp255
F0.0
s(g130
I1
tp256
F0.0
s(g63
I1
tp257
F0.0
s(g235
I1
tp258
F0.0
s(g226
I0
tp259
F0.0
s(g103
I0
tp260
F0.0
s.