ccollections
defaultdict
p0
(c__builtin__
float
p1
tp2
Rp3
(c__builtin__
frozenset
p4
((lp5
(S'tree_dist'
p6
I200
tp7
a(S'monkey_to_tree'
p8
I-100
tp9
a(S'vel'
p10
I0
tp11
a(S'close_to_bottom'
p12
I0
tp13
a(S'close_to_top'
p14
I0
tp15
a(S'gravity'
p16
I0
tp17
atp18
Rp19
I1
tp20
F0.0
s(g4
((lp21
(g6
I100
tp22
a(g10
I-1
tp23
a(g12
I0
tp24
a(g14
I0
tp25
a(g8
I-50
tp26
a(g16
I0
tp27
atp28
Rp29
I0
tp30
F0.0
s(g4
((lp31
(g6
I200
tp32
a(g8
I-100
tp33
a(g10
I-2
tp34
a(g12
I1
tp35
a(g14
I0
tp36
a(g16
I0
tp37
atp38
Rp39
I0
tp40
F-1.0
s(g4
((lp41
(g6
I400
tp42
a(g10
I-2
tp43
a(g12
I0
tp44
a(g14
I0
tp45
a(g8
I-50
tp46
a(g16
I0
tp47
atp48
Rp49
I0
tp50
F0.0
s(g4
((lp51
(g6
I200
tp52
a(g8
I-250
tp53
a(g10
I-2
tp54
a(g12
I1
tp55
a(g14
I0
tp56
a(g16
I0
tp57
atp58
Rp59
I0
tp60
F0.0
s(g4
((lp61
(g6
I400
tp62
a(g8
I50
tp63
a(g12
I0
tp64
a(g14
I0
tp65
a(g10
I0
tp66
a(g16
I0
tp67
atp68
Rp69
I1
tp70
F0.0
s(g4
((lp71
(g6
I400
tp72
a(g10
I-2
tp73
a(g12
I0
tp74
a(g14
I0
tp75
a(g8
I100
tp76
a(g16
I0
tp77
atp78
Rp79
I1
tp80
F0.0
s(g4
((lp81
(g6
I400
tp82
a(g10
I-1
tp83
a(g12
I0
tp84
a(g14
I0
tp85
a(g8
I0
tp86
a(g16
I0
tp87
atp88
Rp89
I1
tp90
F0.0
s(g4
((lp91
(g8
I-100
tp92
a(g10
I-2
tp93
a(g12
I1
tp94
a(g14
I0
tp95
a(g6
I-100
tp96
a(g16
I0
tp97
atp98
Rp99
I1
tp100
F0.0
s(g4
((lp101
(g8
I-150
tp102
a(g10
I-2
tp103
a(g12
I1
tp104
a(g14
I0
tp105
a(g6
I-100
tp106
a(g16
I0
tp107
atp108
Rp109
I0
tp110
F-1.0
s(g4
((lp111
(g8
I-100
tp112
a(g10
I-2
tp113
a(g12
I0
tp114
a(g14
I0
tp115
a(g6
I-100
tp116
a(g16
I0
tp117
atp118
Rp119
I0
tp120
F0.0
s(g4
((lp121
(g6
I200
tp122
a(g10
I-2
tp123
a(g8
I0
tp124
a(g14
I0
tp125
a(g16
I0
tp126
a(g12
I1
tp127
atp128
Rp129
I0
tp130
F0.0
s(g4
((lp131
(g6
I200
tp132
a(g10
I-2
tp133
a(g12
I1
tp134
a(g8
I-50
tp135
a(g14
I0
tp136
a(g16
I0
tp137
atp138
Rp139
I1
tp140
F0.0
s(g4
((lp141
(g6
I200
tp142
a(g10
I1
tp143
a(g8
I-100
tp144
a(g12
I0
tp145
a(g14
I0
tp146
a(g16
I0
tp147
atp148
Rp149
I0
tp150
F-0.5
s(g4
((lp151
(g8
I-200
tp152
a(g10
I-2
tp153
a(g12
I1
tp154
a(g14
I0
tp155
a(g6
I-100
tp156
a(g16
I0
tp157
atp158
Rp159
I0
tp160
F0.0
s(g4
((lp161
(g8
I50
tp162
a(g6
I300
tp163
a(g10
I-2
tp164
a(g12
I0
tp165
a(g14
I0
tp166
a(g16
I0
tp167
atp168
Rp169
I0
tp170
F0.0
s(g4
((lp171
(g6
I100
tp172
a(g10
I0
tp173
a(g12
I0
tp174
a(g14
I0
tp175
a(g8
I-50
tp176
a(g16
I0
tp177
atp178
Rp179
I1
tp180
F0.0
s(g4
((lp181
(g6
I200
tp182
a(g8
I-100
tp183
a(g10
I2
tp184
a(g12
I0
tp185
a(g14
I0
tp186
a(g16
I0
tp187
atp188
Rp189
I0
tp190
F0.0
s(g4
((lp191
(g8
I-200
tp192
a(g6
I-200
tp193
a(g10
I-2
tp194
a(g12
I1
tp195
a(g14
I0
tp196
a(g16
I0
tp197
atp198
Rp199
I0
tp200
F-1.0
s(g4
((lp201
(g6
I400
tp202
a(g10
I-1
tp203
a(g12
I0
tp204
a(g14
I0
tp205
a(g8
I-50
tp206
a(g16
I0
tp207
atp208
Rp209
I0
tp210
F0.0
s(g4
((lp211
(g8
I-100
tp212
a(g10
I-2
tp213
a(g12
I0
tp214
a(g14
I0
tp215
a(g6
I0
tp216
a(g16
I0
tp217
atp218
Rp219
I0
tp220
F0.0
s(g4
((lp221
(g10
I-1
tp222
a(g12
I0
tp223
a(g14
I0
tp224
a(g8
I-50
tp225
a(g6
I0
tp226
a(g16
I0
tp227
atp228
Rp229
I0
tp230
F0.1
s(g4
((lp231
(g6
I100
tp232
a(g10
I1
tp233
a(g12
I0
tp234
a(g14
I0
tp235
a(g8
I-50
tp236
a(g16
I0
tp237
atp238
Rp239
I1
tp240
F0.0
s(g4
((lp241
(g8
I-100
tp242
a(g6
I300
tp243
a(g10
I-2
tp244
a(g12
I0
tp245
a(g14
I0
tp246
a(g16
I0
tp247
atp248
Rp249
I0
tp250
F0.0
s(g4
((lp251
(g6
I400
tp252
a(g8
I100
tp253
a(g12
I0
tp254
a(g14
I0
tp255
a(g10
I0
tp256
a(g16
I0
tp257
atp258
Rp259
I0
tp260
F0.0
s(g49
I1
tp261
F0.0
s(g4
((lp262
(g6
I400
tp263
a(g10
I-1
tp264
a(g12
I0
tp265
a(g14
I0
tp266
a(g8
I100
tp267
a(g16
I0
tp268
atp269
Rp270
I0
tp271
F0.0
s(g209
I1
tp272
F0.0
s(g4
((lp273
(g10
I-2
tp274
a(g12
I0
tp275
a(g14
I0
tp276
a(g8
I-50
tp277
a(g6
I0
tp278
a(g16
I0
tp279
atp280
Rp281
I1
tp282
F0.0
s(g4
((lp283
(g6
I400
tp284
a(g12
I0
tp285
a(g14
I0
tp286
a(g8
I0
tp287
a(g10
I0
tp288
a(g16
I0
tp289
atp290
Rp291
I0
tp292
F0.0
s(g199
I1
tp293
F0.0
s(g4
((lp294
(g6
I200
tp295
a(g10
I1
tp296
a(g12
I0
tp297
a(g14
I0
tp298
a(g8
I-50
tp299
a(g16
I0
tp300
atp301
Rp302
I1
tp303
F0.0
s(g119
I1
tp304
F0.0
s(g4
((lp305
(g6
I400
tp306
a(g8
I-50
tp307
a(g12
I0
tp308
a(g14
I0
tp309
a(g10
I0
tp310
a(g16
I0
tp311
atp312
Rp313
I0
tp314
F0.0
s(g4
((lp315
(g6
I200
tp316
a(g10
I2
tp317
a(g12
I0
tp318
a(g14
I0
tp319
a(g8
I-50
tp320
a(g16
I0
tp321
atp322
Rp323
I0
tp324
F0.0
s(g169
I1
tp325
F0.0
s(g189
I1
tp326
F0.0
s(g4
((lp327
(g6
I400
tp328
a(g8
I50
tp329
a(g10
I-1
tp330
a(g12
I0
tp331
a(g14
I0
tp332
a(g16
I0
tp333
atp334
Rp335
I1
tp336
F0.0
s(g219
I1
tp337
F0.0
s(g4
((lp338
(g6
I300
tp339
a(g10
I-2
tp340
a(g12
I0
tp341
a(g14
I0
tp342
a(g8
I-50
tp343
a(g16
I0
tp344
atp345
Rp346
I0
tp347
F0.0
s(g4
((lp348
(g6
I300
tp349
a(g10
I-2
tp350
a(g12
I0
tp351
a(g14
I0
tp352
a(g8
I0
tp353
a(g16
I0
tp354
atp355
Rp356
I0
tp357
F0.0
s(g249
I1
tp358
F0.0
s(g4
((lp359
(g6
I400
tp360
a(g10
I-2
tp361
a(g12
I0
tp362
a(g14
I0
tp363
a(g8
I0
tp364
a(g16
I0
tp365
atp366
Rp367
I0
tp368
F0.0
s(g179
I0
tp369
F0.0
s(g259
I1
tp370
F0.0
s(g270
I1
tp371
F0.0
s(g335
I0
tp372
F0.0
s(g4
((lp373
(g6
I400
tp374
a(g8
I-200
tp375
a(g10
I-2
tp376
a(g12
I1
tp377
a(g14
I0
tp378
a(g16
I0
tp379
atp380
Rp381
I1
tp382
F0.0
s(g302
I0
tp383
F0.0
s(g4
((lp384
(g6
I200
tp385
a(g8
I-150
tp386
a(g10
I-2
tp387
a(g14
I0
tp388
a(g12
I1
tp389
a(g16
I0
tp390
atp391
Rp392
I1
tp393
F0.0
s(g29
I1
tp394
F0.0
s(g4
((lp395
(g6
I400
tp396
a(g8
I50
tp397
a(g10
I-2
tp398
a(g12
I0
tp399
a(g14
I0
tp400
a(g16
I0
tp401
atp402
Rp403
I0
tp404
F0.0
s(g313
I1
tp405
F0.0
s(g4
((lp406
(g8
I-100
tp407
a(g10
I-2
tp408
a(g12
I1
tp409
a(g6
I0
tp410
a(g14
I0
tp411
a(g16
I0
tp412
atp413
Rp414
I1
tp415
F0.0
s(g239
I0
tp416
F0.0
s(g367
I1
tp417
F0.0
s(g159
I1
tp418
F0.0
s(g346
I1
tp419
F0.0
s(g291
I1
tp420
F0.0
s(g356
I1
tp421
F0.0
s(g4
((lp422
(g6
I200
tp423
a(g8
I-200
tp424
a(g10
I-2
tp425
a(g12
I1
tp426
a(g14
I0
tp427
a(g16
I0
tp428
atp429
Rp430
I1
tp431
F0.0
s(g79
I0
tp432
F0.0
s(g139
I0
tp433
F0.0
s(g323
I1
tp434
F0.0
s(g381
I0
tp435
F0.0
s(g19
I0
tp436
F0.0
s(g392
I0
tp437
F-1.0
s(g281
I0
tp438
F0.09000000000000001
s(g99
I0
tp439
F0.0
s(g403
I1
tp440
F0.0
s(g39
I1
tp441
F0.0
s(g59
I1
tp442
F0.0
s(g69
I0
tp443
F0.0
s(g414
I0
tp444
F0.0
s(g89
I0
tp445
F0.0
s(g109
I1
tp446
F0.0
s(g129
I1
tp447
F0.0
s(g149
I1
tp448
F0.0
s(g229
I1
tp449
F0.0
s(g430
I0
tp450
F-1.0
s.